Microsoft (R) Macro Assembler Version 14.00.24210.0	    04/21/26 15:57:46
renderer.asm						     Page 1 - 1


				; // ==================================
				; // renderer.asm
				; // ----------------------------------
				; // Responsible for determining how graphics should be displayed
				; // and then displaying them to the terminal or other interface
				; // that supports pixelated images.
				; // ==================================

				INCLUDE default_header.inc
			      C .686
			      C .model flat, stdcall
			      C option casemap : none
			      C .stack 4096
			      C OPTION PROC : PRIVATE
			      C 
				INCLUDE engine_types.inc
			      C ; // ==================================
			      C ; // engine_types.inc
			      C ; // ----------------------------------
			      C ; // Misc types used throughout the engine. This file is old and
			      C ; // nonspecific and will be replaced by more specific header
			      C ; // files in the future. 
			      C ; // ==================================
			      C 
			      C IFNDEF ENGINE_TYPES_INC
 = 00000001		      C ENGINE_TYPES_INC EQU 1
			      C 
 = 00000780		      C GAME_WIDTH = 1920
 = 00000438		      C GAME_HEIGHT = 1080
			      C 
 00000004		      C Pixel STRUCT
 00000000  00		      C     r BYTE ?
 00000001  00		      C     g BYTE ?
 00000002  00		      C     b BYTE ?
 00000003  00		      C     a BYTE ?
			      C Pixel ENDS
			      C 
			      C ENDIF
			      C 
				INCLUDE renderer.inc
			      C ; // Contains external declarations for all of the public functions in renderer.asm
			      C 
			      C IFNDEF RENDERER_INC
 = 00000001		      C RENDERER_INC EQU 1
			      C 
			      C displayBuffer PROTO pBuffer:DWORD, hWnd:DWORD
			      C initializeRenderer PROTO
			      C renderCommands PROTO pRenderCommands:DWORD, numCommands:DWORD, pCamera:DWORD, hWnd:DWORD
			      C 
			      C ENDIF
			      C 
				INCLUDE camera.inc
			      C ; // ==================================
			      C ; // camera.inc
			      C ; // ----------------------------------
			      C ; // A camera defines where spatially a scene should
			      C ; // render its GameObjects.
			      C ; // ==================================
			      C 
			      C IFNDEF CAMERA_INC
 = 00000001		      C CAMERA_INC EQU 1
			      C 
 00000010		      C Camera STRUCT
			      C 	; // Perhaps, some time in the future, this data could be 
			      C 	; // replaced by a TransformComponent.
 00000000  00000000	      C 	x DWORD ?
 00000004  00000000	      C 	y DWORD ?
			      C 
			      C 	; // These are out of scope for the project and are unused
 00000008  00000000	      C 	h DWORD ? ; // Viewport Height
 0000000C  00000000	      C 	w DWORD ? ; // Viewport Width
			      C Camera ENDS
			      C 
			      C init_camera PROTO x: DWORD, y: DWORD
			      C new_camera PROTO x: DWORD, y: DWORD
			      C free_camera PROTO 
			      C 
			      C ENDIF
			      C 
				INCLUDE render_command.inc
			      C ; // ==================================
			      C ; // render_command.inc
			      C ; // ----------------------------------
			      C ; // A render command is meant to be compiled into
			      C ; // a list of commands and passed to the renderer
			      C ; // which will decide how exactly to render all of
			      C ; // the commands passed to it.
			      C ; // ==================================
			      C 
			      C IFNDEF RENDERER_COMMAND_INC
 = 00000001		      C RENDERER_COMMAND_INC EQU 1
			      C 
			      C INCLUDE transform_component.inc
			      C ; // ==================================
			      C ; // TransformComponent
			      C ; // ----------------------------------
			      C ; // Defines where in space a GameObject should be
			      C ; // represented.
			      C ; // ==================================
			      C 
			      C IFNDEF TRANSFORM_COMPONENT_INC
 = 00000001		      C TRANSFORM_COMPONENT_INC EQU 1
			      C 
			      C INCLUDE component.inc
			      C ; // ==================================
			      C ; // component.inc
			      C ; // ----------------------------------
			      C ; //	Components are utility helpers to GameObjects that
			      C ; // allow for easy adding of features and a composition
			      C ; // structure for them (HasA vs IsA). 
			      C ; //	Some examples of components are SpriteComponents
			      C ; // that describe what a GameObject should look like or
			      C ; // TransformComponents that describe where a GameObject
			      C ; // is located spatially. 
			      C ; //	This is the generic component STRUCT that
			      C ; // all components inherit from.
			      C ; // ==================================
			      C 
			      C IFNDEF COMPONENT_INC
 = 00000001		      C COMPONENT_INC EQU 1
			      C 
			      C INCLUDE component_ids.inc
			      C ; // ==================================
			      C ; // component_ids.inc
			      C ; // ----------------------------------
			      C ; // A set of "enum" style macros that identify component types 
			      C ; // for the data definition and parsing of a scene's data.
			      C ; // ==================================
			      C 
			      C IFNDEF COMPONENT_IDS_INC
 = 00000001		      C COMPONENT_IDS_INC EQU 1
			      C 
			      C ; // A helper function to make defining a bunch of enums smoother
 = 00000000		      C enumId = 0
			      C DEF_ENUM MACRO enum_name
			      C 	enum_name = enumId
			      C 	enumId = enumId + 1
			      C ENDM
			      C 
			      C ENUM_COMPONENT_ID TYPEDEF DWORD
			      C 
			      C ; // List of component identifiers
			      C DEF_ENUM DEFAULT_COMPONENT_ID
			      C DEF_ENUM RECT_COMPONENT_ID
			      C DEF_ENUM SPRITE_COMPONENT_ID
			      C DEF_ENUM TRANSFORM_COMPONENT_ID
			      C DEF_ENUM RENDERABLE_COMPONENT_ID
			      C DEF_ENUM TIMER_COMPONENT_ID
			      C DEF_ENUM TEXT_COMPONENT_ID
			      C 
			      C ENDIF
			      C 
			      C 
 00000004		      C Component_vtable STRUCT
 00000000  00000000	      C 	pFree DWORD ?
			      C Component_vtable ENDS
			      C 
 00000008		      C Component STRUCT
 00000000  00000000	      C 	componentType ENUM_COMPONENT_ID DEFAULT_COMPONENT_ID
 00000004  00000000	      C 	pVt DWORD ?
			      C Component ENDS
			      C 
			      C ; // Constructor protos
			      C init_component PROTO
			      C new_component PROTO
			      C free_component PROTO
			      C free_component_virtual PROTO
			      C 
			      C ENDIF
			      C 
			      C 
 00000014		      C TransformComponent STRUCT
 00000000  00000000	      C 	baseComponent Component <>
	   00000000
			      C 
 00000008  00000000	      C 	x SDWORD ?
 0000000C  00000000	      C 	y SDWORD ?
			      C 
			      C 	; // Whether to ignore the camera offset when rendering.
			      C 	; // Used for drawing UI items
 00000010  00000000	      C 	ignoreCamera DWORD ?
			      C 
			      C 	; // Out of scope for this project
			      C 	; // rotation DWORD ?
			      C 	; // scaleX DWORD ?
			      C 	; // scaleY DWORD ?
			      C TransformComponent ENDS
			      C 
			      C ; // Constructor methods
			      C init_transform_component PROTO x: DWORD, y : DWORD, ignoreCamera : DWORD
			      C new_transform_component PROTO x: DWORD, y: DWORD, ignoreCamera: DWORD
			      C free_transform_component PROTO
			      C 
			      C ENDIF
			      C 
			      C INCLUDE rect_component.inc
			      C ; // ==================================
			      C ; // rect_component.inc
			      C ; // ----------------------------------
			      C ; // Defines how a GameObject should appear using a rectangle.
			      C ; // Should be used with a transform for proper functionality.
			      C ; // The origin is defined by a transform.
			      C ; // ==================================
			      C 
			      C IFNDEF RECT_COMMAND_INC
 = 00000001		      C RECT_COMMAND_INC EQU 1
			      C 
			      C INCLUDE renderable_component.inc
			      C ; // ==================================
			      C ; // renderable_component.inc
			      C ; // ----------------------------------
			      C ; // A subclass of component that provides
			      C ; // fields for the RenderableComponents which
			      C ; // are RectComponents and SpriteComponents
			      C ; // ==================================
			      C 
			      C IFNDEF RENDERABLE_COMPONENT_INC
 = 00000001		      C RENDERABLE_COMPONENT_INC EQU 1
			      C 
			      C INCLUDE component.inc
			      C ; // ==================================
			      C ; // component.inc
			      C ; // ----------------------------------
			      C ; //	Components are utility helpers to GameObjects that
			      C ; // allow for easy adding of features and a composition
			      C ; // structure for them (HasA vs IsA). 
			      C ; //	Some examples of components are SpriteComponents
			      C ; // that describe what a GameObject should look like or
			      C ; // TransformComponents that describe where a GameObject
			      C ; // is located spatially. 
			      C ; //	This is the generic component STRUCT that
			      C ; // all components inherit from.
			      C ; // ==================================
			      C 
			      C IFNDEF COMPONENT_INC
			      C ENDIF
			      C 
			      C 
 00000010		      C RenderableComponent STRUCT
 00000000  00000000	      C 	baseComponent Component <>
	   00000000
			      C 
 00000008  00000000	      C 	visible DWORD ?
 0000000C  00000000	      C 	layer DWORD ?
			      C RenderableComponent ENDS
			      C 
			      C ; // Constructor protos
			      C init_renderable_component PROTO visible : DWORD, layer : DWORD
			      C 
			      C ENDIF
			      C 
			      C 
 0000001C		      C RectComponent STRUCT
 00000000  00000000	      C 	baseRenderableComponent RenderableComponent <>
	   00000000
	   00000000
	   00000000
			      C 
 00000010  00000000	      C 	h DWORD ? ; // Height
 00000014  00000000	      C 	w DWORD ? ; // Width
			      C 
			      C 	; // Color (For future development, this should be an RGBA object)
			      C 	; // For simplicity reasons, it is 4 bytes for now. 
 00000018  00		      C 	r BYTE ?
 00000019  00		      C 	g BYTE ?
 0000001A  00		      C 	b BYTE ?
 0000001B  00		      C 	a BYTE ?
			      C RectComponent ENDS
			      C 
			      C ; // Constructor methods
			      C init_rect_component PROTO h: DWORD, w : DWORD, r : BYTE, g : BYTE, b : BYTE, a : BYTE
			      C new_rect_component PROTO h: DWORD, w: DWORD, r: BYTE, g: BYTE, b:  BYTE, a: BYTE
			      C free_rect_component PROTO
			      C 
			      C ENDIF
			      C 
			      C INCLUDE sprite_component.inc
			      C ; // ==================================
			      C ; // SpriteComponent
			      C ; // ----------------------------------
			      C ; // Defines how a GameObject should appear using a texture.
			      C ; // Should be used with a transform for proper functionality.
			      C ; // ==================================
			      C 
			      C IFNDEF SPRITE_COMPONENT_INC
 = 00000001		      C SPRITE_COMPONENT_INC EQU 1
			      C 
			      C INCLUDE renderable_component.inc
			      C ; // ==================================
			      C ; // renderable_component.inc
			      C ; // ----------------------------------
			      C ; // A subclass of component that provides
			      C ; // fields for the RenderableComponents which
			      C ; // are RectComponents and SpriteComponents
			      C ; // ==================================
			      C 
			      C IFNDEF RENDERABLE_COMPONENT_INC
			      C ENDIF
			      C 
			      C 
 00000038		      C SpriteComponent STRUCT
 00000000  00000000	      C 	baseRenderableComponent RenderableComponent <>
	   00000000
	   00000000
	   00000000
			      C 
 00000010  00000000	      C 	originX DWORD ?
 00000014  00000000	      C 	originY DWORD ?
			      C 
 00000018  00000000	      C 	pTexture DWORD ?
			      C 
			      C 	; // Info about where the sprite is in the source buffer. (If using spritesheet cell)
 0000001C  00000000	      C 	cellX DWORD ?
 00000020  00000000	      C 	cellY DWORD ?
 00000024  00000000	      C 	cellW DWORD ?
 00000028  00000000	      C 	cellH DWORD ?
			      C 
			      C 	; // *************************
			      C 	; // Booleans (Maybe later these can be compressed into flags to save space)
			      C 	; // *************************
 0000002C  00000000	      C 	flipX DWORD ?
 00000030  00000000	      C 	flipY DWORD ? 
 00000034  00000000	      C 	isCell DWORD ?
			      C SpriteComponent ENDS
			      C 
			      C init_sprite_component PROTO originX:DWORD, originY:DWORD, pTexture:DWORD
			      C new_sprite_component PROTO originX:DWORD, originY : DWORD, pTexture : DWORD
			      C 
			      C ENDIF
			      C 
			      C INCLUDE text_component.inc
			      C ; // ==================================
			      C ; // TextComponent
			      C ; // ----------------------------------
			      C ; // Defines how text should appear on the screen.
			      C ; // ==================================
			      C 
			      C IFNDEF TEXT_COMPONENT_INC
 = 00000001		      C TEXT_COMPONENT_INC EQU 1
			      C 
			      C INCLUDE renderable_component.inc
			      C ; // ==================================
			      C ; // renderable_component.inc
			      C ; // ----------------------------------
			      C ; // A subclass of component that provides
			      C ; // fields for the RenderableComponents which
			      C ; // are RectComponents and SpriteComponents
			      C ; // ==================================
			      C 
			      C IFNDEF RENDERABLE_COMPONENT_INC
			      C ENDIF
			      C 
			      C 
 00000028		      C TextComponent STRUCT
 00000000  00000000	      C 	baseRenderableComponent RenderableComponent <>
	   00000000
	   00000000
	   00000000
			      C 
 00000010  00000000	      C 	pFontTexture	DWORD ?
 00000014  00000000	      C 	pText			DWORD ?
 00000018  00000000	      C 	textMaxLen		DWORD ?
			      C 
			      C 	; // Info about the dimensions of the characters in the texture
 0000001C  00000000	      C 	charW			DWORD ?
 00000020  00000000	      C 	charH			DWORD ?
			      C 
			      C 	; // Extra format info
 00000024  00000000	      C 	spacing			DWORD ?
			      C TextComponent ENDS
			      C 
			      C init_text_component PROTO pFontTexture:DWORD, charW: DWORD, charH: DWORD, spacing: DWORD, maxChars:DWORD
			      C new_text_component PROTO pFontTexture:DWORD, charW: DWORD, charH: DWORD, spacing: DWORD, maxChars:DWORD
			      C set_text_component_text PROTO pText:DWORD
			      C 
			      C ENDIF
			      C 
			      C 
 00000008		      C RenderCommand STRUCT
			      C 	; // Pointer to the transform that describes where the object should be rendered
 00000000  00000000	      C 	pTransform DWORD ?
			      C 
			      C 	; // Pointer to the RenderableComponent subclass
 00000004  00000000	      C 	pRenderable DWORD ?
			      C RenderCommand ENDS
			      C 
			      C ; // Constructor methods
			      C init_render_command PROTO pTransform : DWORD, pRenderable : DWORD
			      C new_render_command PROTO pTransform: DWORD, pRenderable: DWORD
			      C free_render_command PROTO
			      C 
			      C ENDIF
			      C 
				INCLUDE graph_wind.inc
			      C ; // ==================================
			      C ; // graph_win.inc
			      C ; // ----------------------------------
			      C ; // My version of GraphWin.inc from the Irvine library
			      C ; // ==================================
			      C 
			      C IFNDEF GRAPH_WIN_INC
 = 00000001		      C GRAPH_WIN_INC EQU 1
			      C 
			      C INCLUDE heap_functions.inc
			      C ; // ==================================
			      C ; // heap_functions.inc
			      C ; // ----------------------------------
			      C ; // Functions used for dynamic memory management. This file was
			      C ; // added before we learned about heap memory management in class
			      C ; // so we could have easy memory management. My resource for this 
			      C ; // was the windows API reference and the class ch11 slides.
			      C ; // ==================================
			      C 
			      C IFNDEF HEAP_FUNCTIONS_INC
 = 00000001		      C HEAP_FUNCTIONS_INC EQU 1
			      C 
			      C ; // Constants
 = 00000008		      C HEAP_ZERO_MEMORY			equ 00000008h
 = 00000004		      C HEAP_GENERATE_EXCEPTIONS	equ 00000004h
 = 00000001		      C HEAP_NO_SERIALIZE			equ 00000001h
			      C 
 = 00001000		      C MEM_COMMIT					equ 00001000h
 = 00002000		      C MEM_RESERVE					equ 00002000h
 = 00000004		      C PAGE_READWRITE				equ 4
 = 00008000		      C MEM_RELEASE					equ 00008000h
			      C 
 = 00000000		      C NULL   EQU 0
			      C 
			      C ; // Types
			      C HANDLE TYPEDEF DWORD
			      C 
			      C ; // Protos
			      C GetProcessHeap	PROTO
			      C HeapAlloc		PROTO,	hHeap:DWORD, dwFlags:DWORD, dwBytes:DWORD
			      C HeapFree		PROTO,	hHeap:DWORD, dwFlags:DWORD, lpMem:DWORD
			      C HeapReAlloc		PROTO,	hHeap:DWORD, dwFlags:DWORD, lpMem:DWORD,	dwBytes:DWORD
			      C VirtualAlloc	PROTO,	lpAddress:DWORD, dwSize:DWORD, flAllocationType:DWORD, flProtect:DWORD
			      C VirtualFree		PROTO,  lpAddress:DWORD, dwSize:DWORD, dwFreeType:DWORD
			      C 
			      C initialize_heap PROTO ; // This function is from heap_functions.asm. It gets the handle to the process heap and stores in hHeap
			      C 
			      C ; // Data
			      C EXTERNDEF hHeap:HANDLE ; // the heap handle is defined in heap_functions.asm
			      C 
			      C ENDIF
			      C 
			      C 
			      C ; // ********************************
			      C ; // Types
			      C ; // ********************************
			      C 
			      C VOID		TYPEDEF DWORD
			      C UINT		TYPEDEF DWORD
			      C WNDPROC		TYPEDEF DWORD
			      C HINSTANCE	TYPEDEF HANDLE
			      C HICON		TYPEDEF HANDLE
			      C HCURSOR		TYPEDEF HANDLE
			      C HBRUSH		TYPEDEF HANDLE
			      C LPCSTR		TYPEDEF PTR BYTE
			      C LPMSG		TYPEDEF PTR MSG
			      C LPVOID		TYPEDEF PTR VOID
			      C HWND		TYPEDEF HANDLE
			      C HMENU		TYPEDEF HANDLE
			      C HDC			TYPEDEF HANDLE
			      C WPARAM		TYPEDEF DWORD
			      C LPARAM		TYPEDEF DWORD
			      C 
			      C ; // ********************************
			      C ; // Structs
			      C ; // ********************************
 00000008		      C POINT STRUCT
 00000000  00000000	      C   X   DWORD ?
 00000004  00000000	      C   Y   DWORD ?
			      C POINT ENDS
			      C 
			      C ; // from learn.microsoft.com/en-us/windows/win32/api/winuser/ns-winuser-msg
 0000001C		      C MSG STRUCT
 00000000  00000000	      C 	hwnd		HWND	?
 00000004  00000000	      C 	message		UINT	?
 00000008  00000000	      C 	wParam		WPARAM	?
 0000000C  00000000	      C 	lparam		LPARAM	?
 00000010  00000000	      C 	time		DWORD	?
 00000014  00000000	      C 	pt			POINT	<>
	   00000000
			      C MSG ENDS
			      C 
			      C ; // from learn.microsoft.com/en-us/windows/win32/api/winuser/ns-winuser-wndclassexa
 00000030		      C WNDCLASSEXA STRUCT
 00000000  00000000	      C 	cbSize			UINT		?
 00000004  00000000	      C 	style			UINT		?
 00000008  00000000	      C 	lpfnWndProc		WNDPROC		?
 0000000C  00000000	      C 	cbClsExtra		DWORD		?
 00000010  00000000	      C 	cbWndExtra		DWORD		?
 00000014  00000000	      C 	hInstance		HINSTANCE	?
 00000018  00000000	      C 	hIcon			HICON		?
 0000001C  00000000	      C 	hCursor			HCURSOR		?
 00000020  00000000	      C 	hbrBackground	HBRUSH		?
 00000024  00000000	      C 	lpszMenuName	LPCSTR		?	
 00000028  00000000	      C 	lpszClassName	LPCSTR		?
 0000002C  00000000	      C 	hIconSm			HICON		?
			      C WNDCLASSEXA ENDS
 = WNDCLASSEXA		      C WNDCLASSEX TEXTEQU <WNDCLASSEXA>
			      C 
			      C ; // from learn.microsoft.com/en-us/previous-versions/dd183376(v=vs.85)
 00000028		      C BITMAPINFOHEADER STRUCT
 00000000  00000000	      C 	biSize DWORD ?
 00000004  00000000	      C 	biWidth SDWORD ?
 00000008  00000000	      C 	biHeight SDWORD ?
 0000000C  0000		      C 	biPlanes WORD ?
 0000000E  0000		      C 	biBitCount WORD ?
 00000010  00000000	      C 	biCompression DWORD ?
 00000014  00000000	      C 	biSizeImage DWORD ?
 00000018  00000000	      C 	biXPelsPerMeter SDWORD ?
 0000001C  00000000	      C 	biYPelsPerMeter SDWORD ?
 00000020  00000000	      C 	biClrUsed DWORD ?
 00000024  00000000	      C 	biClrImportant DWORD ?
			      C BITMAPINFOHEADER ENDS
			      C 
			      C ; // ********************************
			      C ; // Protos
			      C ; // ********************************
			      C GetModuleHandleA PROTO, pString:PTR BYTE
 = GetModuleHandleA	      C GetModuleHandle TEXTEQU <GetModuleHandleA>
			      C 
			      C RegisterClassExA PROTO, pWndClass :PTR WNDCLASSEX
 = RegisterClassExA	      C RegisterClassEx TEXTEQU <RegisterClassExA>
			      C 
			      C LoadCursorA PROTO, hInstance:HINSTANCE, lpCursorName:LPCSTR
 = LoadCursorA		      C LoadCursor TEXTEQU <LoadCursorA>
			      C 
			      C CreateWindowExA PROTO, 
			      C 	exWinStyle:DWORD,
			      C 	lpClassName:LPCSTR,
			      C 	lpWindowName:LPCSTR,
			      C 	winStyle:DWORD,
			      C 	X:DWORD,
			      C 	Y:DWORD,
			      C 	nWidth:DWORD,
			      C 	nHeight:DWORD,
			      C 	hWndParent:HWND,
			      C 	hMenu:HMENU,
			      C 	hInstance:HINSTANCE,
			      C 	lpParam:LPVOID
 = CreateWindowExA	      C CreateWindowEx TEXTEQU <CreateWindowExA>
			      C 	
			      C ; // from learn.microsoft.com/en-us/windows/win32/api/winuser/nf-winuser-getsystemmetrics
			      C GetSystemMetrics PROTO nIndex:DWORD
			      C 
			      C ; // from learn.microsoft.com/en-us/windows/win32/api/winuser/nf-winuser-peekmessagea
			      C PeekMessageA PROTO, lpMsg:LPMSG, hWnd:HWND, wMsgFilterMin:UINT, wMsgFilterMax:UINT, wRemoveMsg:UINT
 = PeekMessageA		      C PeekMessage TEXTEQU <PeekMessageA>
			      C 
			      C ; // from learn.microsoft.com/en-us/windows/win32/api/winuser/nf-winuser-translatemessage
			      C TranslateMessage PROTO, lpMsg:LPMSG
			      C 
			      C ; // from learn.microsoft.com/en-us/windows/win32/api/winuser/nf-winuser-dispatchmessage
			      C DispatchMessageA PROTO, lpMsg:LPMSG
 = DispatchMessageA	      C DispatchMessage TEXTEQU <DispatchMessageA>
			      C 
			      C ; // from learn.microsoft.com/en-us/windows/win32/api/winuser/nf-winuser-defwindowproca
			      C DefWindowProcA PROTO hWnd:HWND, Msg:UINT, wParam:WPARAM, lParam:LPARAM
 = DefWindowProcA	      C DefWindowProc TEXTEQU <DefWindowProcA>
			      C 
			      C ; // from learn.microsoft.com/en-us/windows/win32/api/winuser/nf-winuser-postquitmessage
			      C PostQuitMessage PROTO nExitCode:DWORD
			      C 
			      C ; // from learn.microsoft.com/en-us/windows/win32/api/wingdi/nf-wingdi-getstockobject
			      C GetStockObject PROTO i:DWORD
			      C 
			      C ; // from learn.microsoft.com/en-us/windows/win32/api/winuser/nf-winuser-getdc
			      C GetDC PROTO hWnd:HWND
			      C 
			      C ; // from learn.microsoft.com/en-us/windows/win32/api/winuser/nf-winuser-releasedc
			      C ReleaseDC PROTO hWnd:HWND, hDC:HDC
			      C 
			      C ; // from learn.microsoft.com/en-us/windows/win32/api/wingdi/nf-wingdi-stretchdibits
			      C StretchDIBits PROTO hdc:HDC, 
			      C 	xDest:DWORD,		yDest:DWORD, 
			      C 	DestWidth:DWORD,	DestHeight:DWORD, 
			      C 	xSrc:DWORD,			ySrc:DWORD, 
			      C 	SrcWidth:DWORD,		SrcHeight:DWORD, 
			      C 	lpBits:DWORD, 
			      C 	lpbmi:DWORD, 
			      C 	iUsage:DWORD, 
			      C 	rop:DWORD
			      C 
			      C ; // from learn.microsoft.com/en-us/windows/win32/api/winuser/nf-winuser-setprocessdpiaware
			      C SetProcessDPIAware PROTO
			      C 
			      C ; // ********************************
			      C ; // Constants
			      C ; // ********************************
 = 00000004		      C BLACK_BRUSH			= 4
			      C 
 = 00000005		      C COLOR_WINDOW        = 5				; std window color
 = 00000002		      C COLOR_BACKGROUND    = 2				; 2=blue F=gray
 = 00007F00		      C IDI_APPLICATION     = 32512			; application icon
 = 00007F00		      C IDC_ARROW           = 07f00h		; mouse cursor--arrow
 = 80000000		      C CW_USEDEFAULT       = 80000000h		; default window size & position
			      C 
 = 00000001		      C PM_REMOVE			= 1
			      C 
 = 00000000		      C SM_CXSCREEN			= 0
 = 00000001		      C SM_CYSCREEN			= 1
			      C 
			      C ; Window Style Constants
 = 80000000		      C WS_POPUP			= 80000000h
 = 10000000		      C WS_VISIBLE			= 10000000h
 = 00CF0000		      C WS_OVERLAPPEDWINDOW = 00CF0000h
			      C 
 = 00000012		      C WM_QUIT				= 12h
 = 00000002		      C WM_DESTROY			= 0002h
 = 00000014		      C WM_ERASEBKGND		= 0014h
			      C 
 = 00CC0020		      C SRCCOPY				= 00CC0020h
			      C 
			      C ENDIF
			      C 
				INCLUDE texture.inc
			      C ; // ==================================
			      C ; // texture.inc
			      C ; // ----------------------------------
			      C ; // A texture is used to store images into
			      C ; // memory.
			      C ; // ==================================
			      C 
			      C IFNDEF TEXTURE_INC
 = 00000001		      C TEXTURE_INC EQU 1
			      C 
 0000000C		      C Texture STRUCT
 00000000  00000000	      C 	w DWORD ?			; // The height of the texture
 00000004  00000000	      C 	h DWORD ?			; // The width of the texture
 00000008  00000000	      C 	pPixels DWORD ?		; // The pointer to the pixel data in RGBA (.PAM file format)
			      C Texture ENDS
			      C 
			      C init_texture PROTO w:DWORD, h:DWORD, pPixels:DWORD
			      C new_texture PROTO w:DWORD, h:DWORD, pPixels:DWORD
			      C free_texture PROTO 
			      C 
			      C ENDIF
			      C 
				INCLUDE heap_functions.inc
			      C ; // ==================================
			      C ; // heap_functions.inc
			      C ; // ----------------------------------
			      C ; // Functions used for dynamic memory management. This file was
			      C ; // added before we learned about heap memory management in class
			      C ; // so we could have easy memory management. My resource for this 
			      C ; // was the windows API reference and the class ch11 slides.
			      C ; // ==================================
			      C 
			      C IFNDEF HEAP_FUNCTIONS_INC
			      C ENDIF
			      C 

				; // ********************************************
				; // Windows function prototypes
				; // ********************************************
				SetConsoleOutputCP PROTO STDCALL : DWORD ; // Used to change the output format to UTF-8

				; // Used to enable virtual terminal processing for full RGB support
				GetConsoleMode     PROTO STDCALL : DWORD, : DWORD
				SetConsoleMode     PROTO STDCALL : DWORD, : DWORD

				; // ConsoleCursorInfo STRUCT used by the GetConsoleCursorInfo and SetConsoleCursorInfo functions
 00000008			CONSOLE_CURSOR_INFO STRUCT
 00000000  00000000			dwSize      DWORD ?
 00000004  00000000			bVisible    DWORD ?
				CONSOLE_CURSOR_INFO ENDS

				; // Used to disable the blinking cursor
				GetConsoleCursorInfo PROTO STDCALL : DWORD, : DWORD
				SetConsoleCursorInfo PROTO STDCALL : DWORD, : DWORD

				; // Windows functions for displaying the text buffer of RGB data.
				; //	WriteConsoleA was chosen instead of the Irvine library functions because of its
				; //	support for things like virtual terminal processing and greater flexibility.
				GetStdHandle       PROTO STDCALL : DWORD
				WriteConsoleA      PROTO STDCALL : DWORD, : DWORD, : DWORD, : DWORD, : DWORD
				SetConsoleCursorPosition PROTO STDCALL : DWORD, : DWORD

				; // Used for getting the screen resolution
 = 00000000			SM_CXSCREEN = 0
 = 00000001			SM_CYSCREEN = 1
				GetSystemMetrics PROTO nIndex : DWORD

 00000000			.data
 00000000 00000000		rendererInitialized DWORD 0; // True / False whether the renderer has been initialized where 0 = False

				; // Windows function data
 =-0000000B			STD_OUTPUT_HANDLE = -11
 = 00000004			ENABLE_VIRTUAL_TERMINAL_PROCESSING = 4

 00000004 00000000		ConsoleMode DD ?
 00000008 00000000		hConsoleOutput DD ?
 0000000C 00000000		bytesWritten DD 0

 00000010 00000000		consoleCursorInfo CONSOLE_CURSOR_INFO <>
	   00000000

				; // Constants
 = 0000000D			CR = 13 ; // Carriage return
 = 0000000A			LF = 10 ; // Line feed
 = 0000001B			ESCP = 1Bh ; // ESC character

				; // Renderer buffers
 00000018 00000000		destX DWORD ?
 0000001C 00000000		destY DWORD ?
 00000020 00000000		destW DWORD ?
 00000024 00000000		destH DWORD ?

 00000028 00000000		pScreenBuffer DWORD ?

 0000002C 00000028		bmiHeader BITMAPINFOHEADER <40, GAME_WIDTH, -GAME_HEIGHT, 1, 32, 0, 0, 0, 0, 0, 0>
	   00000780
	   FFFFFBC8 0001
	   0020 00000000
	   00000000
	   00000000
	   00000000
	   00000000
	   00000000

 00000000			.code
				; // ----------------------------------
				; // writeByteInDecimal
				; // Writes a single byte's decimal representation using ASCII characters into a buffer. 
				; // 
				; // Parameters: 
				; //	AL - byte to print
				; //    EDI - pointer to the buffer to write text to
				; //
				; // Registers changed:
				; //	EDI - will be adjusted after prints. Does not add null terminator.
				; // ----------------------------------
 00000000			writeByteInDecimal PROC USES ebx
					; // divide by 100
 00000000  53		   *	    push   ebx
 00000001  32 E4			xor ah, ah
 00000003  B3 64			mov bl, 100
 00000005  F6 F3			div bl

 00000007  3C 00			cmp al, 0
 00000009  74 05			je print_tens

					; // print result (100s place)
 0000000B  04 30			add al, '0' ; // Add 0x30 to display correct ASCII number representation
 0000000D  88 07			mov [edi], al
 0000000F  47				inc edi

 00000010			print_tens:
 00000010  8A C4			mov al, ah
 00000012  32 E4			xor ah, ah

 00000014  B3 0A			mov bl, 10
 00000016  F6 F3			div bl

 00000018  3C 00			cmp al, 0
 0000001A  74 05			je print_ones

					; // print result (10s place)
 0000001C  04 30			add al, '0'
 0000001E  88 07			mov [edi], al
 00000020  47				inc edi

 00000021			print_ones:
					; // print remainder (1s place)
 00000021  80 C4 30			add ah, '0'
 00000024  88 27			mov[edi], ah	
 00000026  47				inc edi
					ret
 00000027  5B		   *	    pop    ebx
 00000028  C3		   *	    ret    00000h
 00000029			writeByteInDecimal ENDP

				; // ----------------------------------
				; // displayBuffer
				; // Renders an RGBA buffer to the screen using StretchDIBits
				; // Intended to be used for frame by frame animation. 
				; // 
				; // Parameters: 
				; //	pBuffer DWORD - pointer to the new frame buffer to render. MUST BE GAME_WIDTH * GAME_HEIGHT!!!
				; //
				; // ----------------------------------
 00000029			displayBuffer PROC PUBLIC USES esi edi ecx ebx, pBuffer:DWORD, hWnd:HWND
					LOCAL hdc:DWORD
 00000029  55		   *	    push   ebp
 0000002A  8B EC	   *	    mov    ebp, esp
 0000002C  83 C4 FC	   *	    add    esp, 0FFFFFFFCh
 0000002F  56		   *	    push   esi
 00000030  57		   *	    push   edi
 00000031  51		   *	    push   ecx
 00000032  53		   *	    push   ebx
					INVOKE GetDC, hWnd
 00000033  FF 75 0C	   *	    push   dword  ptr ss:[ebp]+00000000Ch
 00000036  E8 00000000 E   *	    call   GetDC
 0000003B  89 45 FC			mov hdc, eax

					INVOKE StretchDIBits,
						hdc,
						destX, destY,
						destW, destH,
						0, 0,
						GAME_WIDTH, GAME_HEIGHT,
						pBuffer,
						ADDR bmiHeader,
						0,
						SRCCOPY
 0000003E  68 00CC0020	   *	    push   +000CC0020h
 00000043  6A 00	   *	    push   +000000000h
 00000045  68 0000002C R   *	    push   OFFSET bmiHeader
 0000004A  FF 75 08	   *	    push   dword  ptr ss:[ebp]+000000008h
 0000004D  68 00000438	   *	    push   +000000438h
 00000052  68 00000780	   *	    push   +000000780h
 00000057  6A 00	   *	    push   +000000000h
 00000059  6A 00	   *	    push   +000000000h
 0000005B  FF 35 00000024 R *	    push   destH
 00000061  FF 35 00000020 R *	    push   destW
 00000067  FF 35 0000001C R *	    push   destY
 0000006D  FF 35 00000018 R *	    push   destX
 00000073  FF 75 FC	   *	    push   dword  ptr ss:[ebp]+0FFFFFFFCh
 00000076  E8 00000000 E   *	    call   StretchDIBits
					
					INVOKE ReleaseDC, hWnd, hdc
 0000007B  FF 75 FC	   *	    push   dword  ptr ss:[ebp]+0FFFFFFFCh
 0000007E  FF 75 0C	   *	    push   dword  ptr ss:[ebp]+00000000Ch
 00000081  E8 00000000 E   *	    call   ReleaseDC

 00000086  8B 45 08			mov eax, pBuffer
					ret
 00000089  5B		   *	    pop    ebx
 0000008A  59		   *	    pop    ecx
 0000008B  5F		   *	    pop    edi
 0000008C  5E		   *	    pop    esi
 0000008D  C9		   *	    leave  
 0000008E  C2 0008	   *	    ret    00008h
 00000091			displayBuffer ENDP

				; // ----------------------------------
				; // calculateAspectRatio
				; // Calculates the offset that the game window should be drawn at
				; // ----------------------------------
 00000091			calculateAspectRatio PROC USES ebx ecx edx esi
					local SCREEN_WIDTH : DWORD, SCREEN_HEIGHT : DWORD
 00000091  55		   *	    push   ebp
 00000092  8B EC	   *	    mov    ebp, esp
 00000094  83 C4 F8	   *	    add    esp, 0FFFFFFF8h
 00000097  53		   *	    push   ebx
 00000098  51		   *	    push   ecx
 00000099  52		   *	    push   edx
 0000009A  56		   *	    push   esi
					INVOKE GetSystemMetrics, SM_CXSCREEN
 0000009B  6A 00	   *	    push   +000000000h
 0000009D  E8 00000000 E   *	    call   GetSystemMetrics
 000000A2  89 45 FC			mov SCREEN_WIDTH, eax
					INVOKE GetSystemMetrics, SM_CYSCREEN
 000000A5  6A 01	   *	    push   +000000001h
 000000A7  E8 00000000 E   *	    call   GetSystemMetrics
 000000AC  89 45 F8			mov SCREEN_HEIGHT, eax

					; // Calculate SCREEN_WIDTH * GAME_HEIGHT
 000000AF  8B 45 FC			mov eax, SCREEN_WIDTH
 000000B2  BB 00000438			mov ebx, GAME_HEIGHT
 000000B7  F7 E3			mul ebx
 000000B9  8B F0			mov esi, eax

					; // Calculate SCREEN_HEIGHT * GAME_WIDTH
 000000BB  8B 45 F8			mov eax, SCREEN_HEIGHT
 000000BE  BB 00000780			mov ebx, GAME_WIDTH
 000000C3  F7 E3			mul ebx

					; // Determine if the screen should be displayed with letterboxing or pillarboxing.
					; // Letterboxing is when there are black bars on the top and bottom of the screen,
					; // and pillarboxing is when there are black bars on the right and left.
 000000C5  3B F0			cmp esi, eax
 000000C7  77 1B			ja pillarboxing

 000000C9			letterboxing:
 000000C9  8B 4D FC			mov ecx, SCREEN_WIDTH
 000000CC  89 0D 00000020 R		mov destW, ecx
					; //	destH = (ScreenWidth * GameHeight) / GameWidth
 000000D2  8B C6			mov eax, esi
 000000D4  33 D2			xor edx, edx
 000000D6  BB 00000780			mov ebx, GAME_WIDTH
 000000DB  F7 F3			div ebx
 000000DD  A3 00000024 R		mov destH, eax
 000000E2  EB 21			jmp calculateXYOffset
						
 000000E4			pillarboxing:
 000000E4  8B 4D F8			mov ecx, SCREEN_HEIGHT
 000000E7  89 0D 00000024 R		mov destH, ecx
					; //	destW = (ScreenHeight * GameWidth) / GameHeight
 000000ED  8B 45 F8			mov eax, SCREEN_HEIGHT
 000000F0  BB 00000780			mov ebx, GAME_WIDTH
 000000F5  F7 E3			mul ebx
 000000F7  33 D2			xor edx, edx
 000000F9  BB 00000438			mov ebx, GAME_HEIGHT
 000000FE  F7 F3			div ebx
 00000100  A3 00000020 R		mov destW, eax

 00000105			calculateXYOffset:
					; // destX = (ScreenWidth - destW) / 2
 00000105  8B 45 FC			mov eax, SCREEN_WIDTH
 00000108  2B 05 00000020 R		sub eax, destW
 0000010E  D1 E8			shr eax, 1
 00000110  A3 00000018 R		mov destX, eax

					; // destY = (ScreenHeight - destH) / 2
 00000115  8B 45 F8			mov eax, SCREEN_HEIGHT
 00000118  2B 05 00000024 R		sub eax, destH
 0000011E  D1 E8			shr eax, 1
 00000120  A3 0000001C R		mov destY, eax
					
					ret
 00000125  5E		   *	    pop    esi
 00000126  5A		   *	    pop    edx
 00000127  59		   *	    pop    ecx
 00000128  5B		   *	    pop    ebx
 00000129  C9		   *	    leave  
 0000012A  C3		   *	    ret    00000h
 0000012B			calculateAspectRatio ENDP

				; // ----------------------------------
				; // initializeRenderer
				; // Initializes the window for rendering by getting the screen resolution 
				; // and allocates space for the screen buffer
				; // ----------------------------------
 0000012B			initializeRenderer PROC PUBLIC USES eax
 0000012B  50		   *	    push   eax
					INVOKE calculateAspectRatio
 0000012C  E8 FFFFFF60	   *	    call   calculateAspectRatio

					; // Now initialize the screen buffer
 00000131  B8 00000780			mov eax, GAME_WIDTH
 00000136  69 C0 00000438	    imul eax, GAME_HEIGHT
 0000013C  C1 E0 02		    shl eax, 2

					INVOKE HeapAlloc, hHeap, HEAP_GENERATE_EXCEPTIONS OR HEAP_ZERO_MEMORY, eax
 0000013F  50		   *	    push   eax
 00000140  6A 0C	   *	    push   +00000000Ch
 00000142  FF 35 00000000 E *	    push   hHeap
 00000148  E8 00000000 E   *	    call   HeapAlloc
 0000014D  A3 00000028 R	    mov pScreenBuffer, eax

					ret
 00000152  58		   *	    pop    eax
 00000153  C3		   *	    ret    00000h
 00000154			initializeRenderer ENDP

				; // ----------------------------------
				; // blendColor
				; // Private helper. Blends two colors together based on the alpha value of the foreground.
				; // ----------------------------------
 00000154			blendColor PROC USES ebx ecx edx esi edi, fgColor : DWORD, bgColor : DWORD
				local finalColor : DWORD, fgAlpha : DWORD
 00000154  55		   *	    push   ebp
 00000155  8B EC	   *	    mov    ebp, esp
 00000157  83 C4 F8	   *	    add    esp, 0FFFFFFF8h
 0000015A  53		   *	    push   ebx
 0000015B  51		   *	    push   ecx
 0000015C  52		   *	    push   edx
 0000015D  56		   *	    push   esi
 0000015E  57		   *	    push   edi
 0000015F  8B 75 08			mov esi, fgColor
 00000162  C1 EE 18			shr esi, 24 ; // Shift eax right 3 bytes to get alpha by itself

					; // If the fgColor is opaque, return the fgColor
					.IF eax == 0FFh
 00000165  3D 000000FF	   *	    cmp    eax, 0FFh
 0000016A  75 08	   *	    jne    @C0001
 0000016C  8B 45 08				mov eax, fgColor
 0000016F  E9 0000008E				jmp blendColor_exit
					.ENDIF
 00000174		   *@C0001:

					; // If the fgColor is fully transparent, return the bgColor
					.IF eax == 0
 00000174  0B C0	   *	    or	eax, eax
 00000176  75 08	   *	    jne    @C0003
 00000178  8B 45 0C				mov eax, bgColor
 0000017B  E9 00000082				jmp blendColor_exit
					.ENDIF
 00000180		   *@C0003:

					; // None of the jump conditions apply, so we must do the blending logic
					; // The formula is (fgColor * fgAlpha + bgColor * (255 - fgAlpha)) / 255
 00000180  89 75 F8			mov fgAlpha, esi
 00000183  BF 000000FF			mov edi, 255
 00000188  2B FE			sub edi, esi ; // 255 - fgAlpha

 0000018A  BA 00000000			mov edx, 0

					; // Red
 0000018F  8B 45 08			mov eax, fgColor
 00000192  25 000000FF			and eax, 0FFh
 00000197  0F AF C6			imul eax, esi

 0000019A  8B 5D 0C			mov ebx, bgColor
 0000019D  81 E3 000000FF		and ebx, 0FFh
 000001A3  0F AF DF			imul ebx, edi ; // Multiply the background color by 255 - fgAlpha

 000001A6  03 C3			add eax, ebx
 000001A8  C1 E8 08			shr eax, 8  ; // Divide by 256 instead of 255 for speed
 000001AB  0B D0			or edx, eax

					; // Green
 000001AD  8B 45 08			mov eax, fgColor
 000001B0  C1 E8 08			shr eax, 8 ; // Move 1 byte over
 000001B3  25 000000FF			and eax, 0FFh
 000001B8  0F AF C6			imul eax, esi

 000001BB  8B 5D 0C			mov ebx, bgColor
 000001BE  C1 EB 08			shr ebx, 8
 000001C1  81 E3 000000FF		and ebx, 0FFh
 000001C7  0F AF DF			imul ebx, edi ; // Multiply the background color by 255 - fgAlpha

 000001CA  03 C3			add eax, ebx
 000001CC  C1 E8 08			shr eax, 8  ; // Divide by 256 instead of 255 for speed
 000001CF  C1 E0 08			shl eax, 8
 000001D2  0B D0			or edx, eax

					; // Blue
 000001D4  8B 45 08			mov eax, fgColor
 000001D7  C1 E8 10			shr eax, 16 ; // Move 2 byte over
 000001DA  25 000000FF			and eax, 0FFh
 000001DF  0F AF C6			imul eax, esi

 000001E2  8B 5D 0C			mov ebx, bgColor
 000001E5  C1 EB 10			shr ebx, 16
 000001E8  81 E3 000000FF		and ebx, 0FFh
 000001EE  0F AF DF			imul ebx, edi ; // Multiply the background color by 255 - fgAlpha

 000001F1  03 C3			add eax, ebx
 000001F3  C1 E8 08			shr eax, 8  ; // Divide by 256 instead of 255 for speed
 000001F6  C1 E0 10			shl eax, 16
 000001F9  0B D0			or edx, eax

					; // Set alpha to FFh 
 000001FB  B8 FF000000			mov eax, 0FF000000h
 00000200  0B C2			or eax, edx
					
 00000202			blendColor_exit:
					ret
 00000202  5F		   *	    pop    edi
 00000203  5E		   *	    pop    esi
 00000204  5A		   *	    pop    edx
 00000205  59		   *	    pop    ecx
 00000206  5B		   *	    pop    ebx
 00000207  C9		   *	    leave  
 00000208  C2 0008	   *	    ret    00008h
 0000020B			blendColor ENDP
renderer.asm(323) : warning A6004:procedure argument or local not referenced : finalColor

; // ----------------------------------
				; // drawRect
				; // Private helper. Draws a filled rectangle to the buffer.
				; // Position is relative to camera (unless ignoreCamera set).
				; // ----------------------------------
 0000020B			drawRect PROC PRIVATE USES esi edi ebx ecx edx, pTrans:DWORD, pRect:DWORD, pCamera:DWORD, pBuffer:DWORD
					local sx:DWORD, sy:DWORD, rw:DWORD, rh:DWORD, color:DWORD

					; // skip if not visible
 0000020B  55		   *	    push   ebp
 0000020C  8B EC	   *	    mov    ebp, esp
 0000020E  83 C4 EC	   *	    add    esp, 0FFFFFFECh
 00000211  56		   *	    push   esi
 00000212  57		   *	    push   edi
 00000213  53		   *	    push   ebx
 00000214  51		   *	    push   ecx
 00000215  52		   *	    push   edx
 00000216  8B 7D 0C			mov edi, pRect
 00000219  8B 47 08			mov eax, (RenderableComponent PTR [edi]).visible
 0000021C  85 C0			test eax, eax
 0000021E  0F 84 000000F6		jz drawRect_done

					; // check w > 0 and h > 0
 00000224  8B 47 14			mov eax, (RectComponent PTR [edi]).w
 00000227  83 F8 00			cmp eax, 0
 0000022A  0F 8E 000000EA		jle drawRect_done
 00000230  89 45 F4			mov rw, eax

 00000233  8B 47 10			mov eax, (RectComponent PTR [edi]).h
 00000236  83 F8 00			cmp eax, 0
 00000239  0F 8E 000000DB		jle drawRect_done
 0000023F  89 45 F0			mov rh, eax

					; // screen position
 00000242  8B 5D 08			mov ebx, pTrans
 00000245  8B 43 08			mov eax, (TransformComponent PTR [ebx]).x
 00000248  8B 53 0C			mov edx, (TransformComponent PTR [ebx]).y

 0000024B  8B 5D 08			mov ebx, pTrans
					.IF [ebx].TransformComponent.ignoreCamera == 0
 0000024E  83 7B 10 00	   *	    cmp    [ebx] . TransformComponent . ignoreCamera, 000h
 00000252  75 08	   *	    jne    @C0005
 00000254  8B 75 10				mov esi, pCamera
 00000257  2B 06				sub eax, (Camera PTR [esi]).x
 00000259  2B 56 04				sub edx, (Camera PTR [esi]).y
					.ENDIF
 0000025C		   *@C0005:

 0000025C  89 45 FC			mov sx, eax
 0000025F  89 55 F8			mov sy, edx

					; // clipping logic (set bounds)

					; // check that left edge isn't past the left of the screen
					; //	if it is, clamp it to 0
 00000262  8B 45 FC			mov eax, sx
 00000265  8B 4D FC			mov ecx, sx
 00000268  03 4D F4			add ecx, rw

 0000026B  83 F8 00			cmp eax, 0
 0000026E  7D 05			jge check_x_end
 00000270  B8 00000000			mov eax, 0

					; // check that right edge isn't past the right of the screen
					; //	if it is, clamp it to GAME_WIDTH
 00000275			check_x_end:
 00000275  81 F9 00000780		cmp ecx, GAME_WIDTH
 0000027B  7E 05			jle set_x_bounds
 0000027D  B9 00000780			mov ecx, GAME_WIDTH

					; // Check if the left is offscreen
					; //	if it is, don't draw the Rect
 00000282			set_x_bounds:
 00000282  3B C1			cmp eax, ecx
 00000284  0F 8D 00000090		jge drawRect_done

					; // Clamp X bounds
 0000028A  2B C8			sub ecx, eax
 0000028C  89 45 FC			mov sx, eax
 0000028F  89 4D F4			mov rw, ecx

					; // check that top edge isn't before the bottom of the screen
					; //	if it is, clamp it to 0
 00000292  8B 75 F8			mov esi, sy
 00000295  8B 55 F8			mov edx, sy
 00000298  03 55 F0			add edx, rh

 0000029B  83 FE 00			cmp esi, 0
 0000029E  7D 05			jge check_y_end
 000002A0  BE 00000000			mov esi, 0

					; // check that bottom edge isn't past the bottom of the screen
					; //	if it is, clamp it to GAME_HEIGHT
 000002A5			check_y_end:
 000002A5  81 FA 00000438		cmp edx, GAME_HEIGHT
 000002AB  7E 05			jle set_y_bounds
 000002AD  BA 00000438			mov edx, GAME_HEIGHT

					; // Check if the top is offscreen
					; //	if it is, don't draw the Rect
 000002B2			set_y_bounds:
 000002B2  3B F2			cmp esi, edx
 000002B4  7D 64			jge drawRect_done
					
					; // Clamp Y bounds
 000002B6  2B D6			sub edx, esi
 000002B8  89 75 F8			mov sy, esi
 000002BB  89 55 F0			mov rh, edx

					; // build pixel dword (r g b a)
 000002BE  0F B6 47 1A			movzx eax, (RectComponent PTR [edi]).b
 000002C2  0F B6 5F 19			movzx ebx, (RectComponent PTR [edi]).g
 000002C6  C1 E3 08			shl ebx, 8
 000002C9  0B C3			or eax, ebx
 000002CB  0F B6 5F 18			movzx ebx, (RectComponent PTR [edi]).r
 000002CF  C1 E3 10			shl ebx, 16
 000002D2  0B C3			or eax, ebx
 000002D4  0F B6 5F 1B			movzx ebx, (RectComponent PTR [edi]).a
 000002D8  C1 E3 18			shl ebx, 24
 000002DB  0B C3			or eax, ebx
 000002DD  89 45 EC			mov color, eax

					; // draw loops
 000002E0  8B 75 F8			mov esi, sy
 000002E3  8B 55 F8			mov edx, sy
 000002E6  03 55 F0			add edx, rh
 000002E9			yloop_rect:
 000002E9  3B F2			cmp esi, edx
 000002EB  7D 2D			jge drawRect_done
 000002ED  8B C6			mov eax, esi
 000002EF  69 C0 00000780		imul eax, GAME_WIDTH
 000002F5  03 45 FC			add eax, sx
 000002F8  C1 E0 02			shl eax, 2
 000002FB  03 45 14			add eax, pBuffer
 000002FE  8B F8			mov edi, eax
 00000300  8B 4D F4			mov ecx, rw
 00000303			xloop_rect:
 00000303  8B 45 EC			mov eax, color
 00000306  8B 1F			mov ebx, [edi] ; // Grab the color underneath

					INVOKE blendColor, eax, ebx
 00000308  53		   *	    push   ebx
 00000309  50		   *	    push   eax
 0000030A  E8 FFFFFE45	   *	    call   blendColor

 0000030F  89 07			mov [edi], eax
 00000311  83 C7 04			add edi, 4
 00000314  49				dec ecx
 00000315  75 EC			jnz xloop_rect
 00000317  46				inc esi
 00000318  EB CF			jmp yloop_rect

 0000031A			drawRect_done:
					ret
 0000031A  5A		   *	    pop    edx
 0000031B  59		   *	    pop    ecx
 0000031C  5B		   *	    pop    ebx
 0000031D  5F		   *	    pop    edi
 0000031E  5E		   *	    pop    esi
 0000031F  C9		   *	    leave  
 00000320  C2 0010	   *	    ret    00010h
 00000323			drawRect ENDP

				; // ----------------------------------
				; // drawSprite
				; // Private helper. Draws a texture cell to the buffer.
				; // Position is relative to camera (unless ignoreCamera set).
				; // ----------------------------------
 00000323			drawSprite PROC PRIVATE USES esi edi ebx ecx edx, pTrans:DWORD, pSprite:DWORD, pCamera:DWORD, pBuffer:DWORD
					local texW:DWORD, texH:DWORD, texPixels:DWORD		; // Texture data

					local sx : DWORD, sy : DWORD						; // buffer coords adjusted for clipping
					local rw : DWORD, rh : DWORD						; // size after clipping

					local srcX : DWORD, srcY : DWORD					; // base position in the texture
					local srcW : DWORD, srcH : DWORD					; // original size of the texture

					local startSrcX : DWORD, startSrcY : DWORD			; // position that the drawing starts from (adjusted for flipping)
					local curSrcX : DWORD, curSrcY : DWORD				; // current position in the source texture while drawing
					local dirX : DWORD, dirY : DWORD					; // direction of printing the texture (either 1 or -1)
					local xCounter:DWORD, endY:DWORD, srcRowBase:DWORD	; // local variables for the draw loop
					
					local clipLeft:DWORD, clipTop:DWORD

					; // Skip if not visible
 00000323  55		   *	    push   ebp
 00000324  8B EC	   *	    mov    ebp, esp
 00000326  83 C4 A8	   *	    add    esp, 0FFFFFFA8h
 00000329  56		   *	    push   esi
 0000032A  57		   *	    push   edi
 0000032B  53		   *	    push   ebx
 0000032C  51		   *	    push   ecx
 0000032D  52		   *	    push   edx
 0000032E  8B 7D 0C			mov edi, pSprite
 00000331  8B 47 08			mov eax, (RenderableComponent PTR [edi]).visible
 00000334  85 C0			test eax, eax
 00000336  0F 84 00000259		jz drawSprite_done

					; // Skip the rendering in case of a null pointer
 0000033C  8B 5F 18			mov ebx, (SpriteComponent PTR [edi]).pTexture
 0000033F  85 DB			test ebx, ebx
 00000341  0F 84 0000024E		jz drawSprite_done

 00000347  8B 03			mov eax, (Texture PTR [ebx]).w
 00000349  89 45 FC			mov texW, eax
 0000034C  8B 43 04			mov eax, (Texture PTR [ebx]).h
 0000034F  89 45 F8			mov texH, eax
 00000352  8B 43 08			mov eax, (Texture PTR [ebx]).pPixels
 00000355  89 45 F4			mov texPixels, eax

					; // Get base dimensions and source coordinates
 00000358  8B 47 34			mov eax, (SpriteComponent PTR [edi]).isCell

					.IF eax == 0
 0000035B  0B C0	   *	    or	eax, eax
 0000035D  75 22	   *	    jne    @C0007
						; // Texture is a full image
 0000035F  8B 45 FC				mov eax, texW
 00000362  89 45 D8				mov srcW, eax
 00000365  89 45 E8				mov rw, eax
					
 00000368  8B 43 04				mov eax, (Texture PTR [ebx]).h
 0000036B  89 45 D4				mov srcH, eax
 0000036E  89 45 E4				mov rh, eax

 00000371  C7 45 E0				mov srcX, 0
	   00000000
 00000378  C7 45 DC				mov srcY, 0
	   00000000

					.ELSE
 0000037F  EB 1E	   *	    jmp    @C0009
 00000381		   *@C0007:
						; // Texture is a cell
 00000381  8B 47 24				mov eax, (SpriteComponent PTR [edi]).cellW
 00000384  89 45 D8				mov srcW, eax
 00000387  89 45 E8				mov rw, eax

 0000038A  8B 47 28				mov eax, (SpriteComponent PTR [edi]).cellH
 0000038D  89 45 D4				mov srcH, eax
 00000390  89 45 E4				mov rh, eax

 00000393  8B 47 1C				mov eax, (SpriteComponent PTR [edi]).cellX
 00000396  89 45 E0				mov srcX, eax
 00000399  8B 47 20				mov eax, (SpriteComponent PTR [edi]).cellY
 0000039C  89 45 DC				mov srcY, eax
					.ENDIF
 0000039F		   *@C0009:

					; // Check if the sprite is of zero height or width
 0000039F  83 7D E8 00			cmp rw, 0
 000003A3  0F 8E 000001EC		jle drawSprite_done
 000003A9  83 7D E4 00			cmp rh, 0
 000003AD  0F 8E 000001E2		jle drawSprite_done

					; // Adjust transform for origin pos
 000003B3  8B 5D 08			mov ebx, pTrans
 000003B6  8B 43 08			mov eax, (TransformComponent PTR [ebx]).x
 000003B9  2B 47 10			sub eax, (SpriteComponent PTR [edi]).originX
 000003BC  8B 53 0C			mov edx, (TransformComponent PTR [ebx]).y
 000003BF  2B 57 14			sub edx, (SpriteComponent PTR [edi]).originY

					; // Adjust transform for camera pos (if applicable)
 000003C2  8B 5D 08			mov ebx, pTrans
					.IF [ebx].TransformComponent.ignoreCamera == 0
 000003C5  83 7B 10 00	   *	    cmp    [ebx] . TransformComponent . ignoreCamera, 000h
 000003C9  75 08	   *	    jne    @C000A
 000003CB  8B 75 10				mov esi, pCamera
 000003CE  2B 06				sub eax, (Camera PTR [esi]).x
 000003D0  2B 56 04				sub edx, (Camera PTR [esi]).y
					.ENDIF
 000003D3		   *@C000A:
						
					; // Put screen position
 000003D3  89 45 F0			mov sx, eax
 000003D6  89 55 EC			mov sy, edx

					; // clipping logic (set bounds)
 000003D9  C7 45 AC			mov clipLeft, 0
	   00000000
 000003E0  C7 45 A8			mov clipTop, 0
	   00000000

					; // Check X clipping
 000003E7  8B 45 F0			mov eax, sx
 000003EA  8B C8			mov ecx, eax
 000003EC  03 4D E8			add ecx, rw

 000003EF  83 F8 00			cmp eax, 0
 000003F2  7D 11			jge check_x_end
 000003F4  F7 D8			neg eax
 000003F6  89 45 AC			mov clipLeft, eax
 000003F9  C7 45 F0			mov sx, 0
	   00000000
 00000400  B8 00000000			mov eax, 0

 00000405			check_x_end:
					; // Check rightmost bounds
 00000405  81 F9 00000780		cmp ecx, GAME_WIDTH
 0000040B  7E 05			jle set_x_bounds
 0000040D  B9 00000780			mov ecx, GAME_WIDTH

 00000412			set_x_bounds:
 00000412  3B C1			cmp eax, ecx ; // Fail case for if the right and left of the sprite are flipped
 00000414  0F 8D 0000017B		jge drawSprite_done

 0000041A  2B C8			sub ecx, eax
 0000041C  89 4D E8			mov rw, ecx

					; // Check y clipping
 0000041F  8B 75 EC			mov esi, sy
 00000422  8B 55 EC			mov edx, sy
 00000425  03 55 E4			add edx, rh

 00000428  83 FE 00			cmp esi, 0
 0000042B  7D 11			jge check_y_end
 0000042D  F7 DE			neg esi
 0000042F  89 75 A8			mov clipTop, esi
 00000432  C7 45 EC			mov sy, 0
	   00000000
 00000439  BE 00000000			mov esi, 0

 0000043E			check_y_end:
					; // Check uppermost bounds
 0000043E  81 FA 00000438		cmp edx, GAME_HEIGHT
 00000444  7E 05			jle set_y_bounds
 00000446  BA 00000438			mov edx, GAME_HEIGHT

 0000044B			set_y_bounds:
 0000044B  3B F2			cmp esi, edx ; // Fail case for if the top and bottom of the sprite are flipped
 0000044D  0F 8D 00000142		jge drawSprite_done

 00000453  2B D6			sub edx, esi
 00000455  89 55 E4			mov rh, edx

					; // calculate the actual start x position based on flipping
 00000458  8B 45 E0			mov eax, srcX
 0000045B  8B 77 2C			mov esi, (SpriteComponent PTR [edi]).flipX
					.IF esi == 0
 0000045E  0B F6	   *	    or	esi, esi
 00000460  75 0F	   *	    jne    @C000C
 00000462  C7 45 C0				mov dirX, 1
	   00000001
 00000469  03 45 AC				add eax, clipLeft
 0000046C  89 45 D0				mov startSrcX, eax
					.ELSE
 0000046F  EB 11	   *	    jmp    @C000E
 00000471		   *@C000C:
 00000471  C7 45 C0				mov dirX, -1
	   FFFFFFFF
 00000478  03 45 D8				add eax, srcW
 0000047B  48					dec eax
 0000047C  2B 45 AC				sub eax, clipLeft
 0000047F  89 45 D0				mov startSrcX, eax
					.ENDIF
 00000482		   *@C000E:

					; // calculate the actual start y position based on flipping
 00000482  8B 5D DC			mov ebx, srcY
 00000485  8B 77 30			mov esi, (SpriteComponent PTR [edi]).flipY
					.IF esi == 0
 00000488  0B F6	   *	    or	esi, esi
 0000048A  75 0F	   *	    jne    @C000F
 0000048C  C7 45 BC				mov dirY, 1
	   00000001
 00000493  03 5D A8				add ebx, clipTop
 00000496  89 5D CC				mov startSrcY, ebx
					.ELSE
 00000499  EB 11	   *	    jmp    @C0011
 0000049B		   *@C000F:
 0000049B  C7 45 BC				mov dirY, -1
	   FFFFFFFF
 000004A2  03 5D D4				add ebx, srcH
 000004A5  4B					dec ebx
 000004A6  2B 5D A8				sub ebx, clipTop
 000004A9  89 5D CC				mov startSrcY, ebx
					.ENDIF
 000004AC		   *@C0011:

					; // Now draw the sprite
 000004AC  8B 75 EC			mov esi, sy
 000004AF  8B 45 EC			mov eax, sy
 000004B2  03 45 E4			add eax, rh
 000004B5  89 45 B4			mov endY, eax

 000004B8  8B 45 CC			mov eax, startSrcY
 000004BB  89 45 C4			mov curSrcY, eax

 000004BE			yloop_sprite:
 000004BE  3B 75 B4			cmp esi, endY
 000004C1  0F 8D 000000CE		jge drawSprite_done

					; // Calculate screen buffer pointer
 000004C7  8B C6			mov eax, esi
 000004C9  69 C0 00000780		imul eax, GAME_WIDTH
 000004CF  03 45 F0			add eax, sx
 000004D2  C1 E0 02			shl eax, 2
 000004D5  03 45 14			add eax, pBuffer
 000004D8  8B F8			mov edi, eax

					; // Calculate row base
 000004DA  8B 45 C4			mov eax, curSrcY
 000004DD  0F AF 45 FC			imul eax, texW
 000004E1  89 45 B0			mov srcRowBase, eax

 000004E4  8B 45 D0			mov eax, startSrcX
 000004E7  89 45 C8			mov curSrcX, eax

 000004EA  8B 5D E8			mov ebx, rw
 000004ED  89 5D B8			mov xCounter, ebx

 000004F0			xloop_sprite:
 000004F0  83 7D B8 00			cmp xCounter, 0
 000004F4  0F 84 0000008F		je end_xloop

					; // Get source pixel
 000004FA  8B 45 B0			mov eax, srcRowBase
 000004FD  03 45 C8			add eax, curSrcX
 00000500  C1 E0 02			shl eax, 2
 00000503  03 45 F4			add eax, texPixels
 00000506  8B 00			mov eax, [eax]
					
 00000508  8B 1F			mov ebx, [edi]

					; // convert from RGBA to BGRA
 0000050A  0F C8			bswap eax; // The bswap instruction was not learned in class. It is used here as an easy way of flipping the DWORD around.
 0000050C  C1 C8 08			ror eax, 8

					; // ********************************************
					; // Alpha blending logic
					; // ********************************************
 0000050F  8B C8			mov ecx, eax
 00000511  C1 E9 18			shr ecx, 24

 00000514  81 F9 000000FF		cmp ecx, 255 ; // If the pixel is opaque, we can immediately draw it
 0000051A  74 5A			je write_pixel

 0000051C  83 F9 00			cmp ecx, 0 ; // If the pixel is fully transparent, don't blend it
 0000051F  74 57			je skip_pixel

					; // Calculate 255 - fgAlpha
 00000521  56				push esi
 00000522  57				push edi
				
 00000523  BA 000000FF			mov edx, 255
 00000528  2B D1			sub edx, ecx
				
					; // Blend red and blue
					; // Mask the G & A foreground colors
 0000052A  8B F0			mov esi, eax
 0000052C  81 E6 00FF00FF		and esi, 00FF00FFh
 00000532  0F AF F1			imul esi, ecx
				
					; // Mask the G & A background colors 
 00000535  8B FB			mov edi, ebx
 00000537  81 E7 00FF00FF		and edi, 00FF00FFh
 0000053D  0F AF FA			imul edi, edx
				
 00000540  03 F7			add esi, edi
 00000542  C1 EE 08			shr esi, 8
 00000545  81 E6 00FF00FF		and esi, 00FF00FFh
				
					; // Blend green
					; // Mask the B & R & A foreground colors
 0000054B  8B F8			mov edi, eax
 0000054D  81 E7 0000FF00		and edi, 0000FF00h
 00000553  0F AF F9			imul edi, ecx
				
					; // Mask the B & R & A background colors
 00000556  8B C3			mov eax, ebx
 00000558  25 0000FF00			and eax, 0000FF00h
 0000055D  0F AF C2			imul eax, edx
				
 00000560  03 F8			add edi, eax
 00000562  C1 EF 08			shr edi, 8
 00000565  81 E7 0000FF00		and edi, 0000FF00h
				
					; // Combine to the final DWORD
 0000056B  0B C6			or eax, esi             ; // Combine green with red and blue
 0000056D  0B C7			or eax, edi
 0000056F  0D FF000000			or eax, 0FF000000h		; // Restore alpha to FF
				
 00000574  5F				pop edi
 00000575  5E				pop esi
				
 00000576			write_pixel:
 00000576  89 07			mov [edi], eax
				
 00000578			skip_pixel:
 00000578  83 C7 04			add edi, 4

					; // Advance source X
 0000057B  8B 45 C0			mov eax, dirX
 0000057E  01 45 C8			add curSrcX, eax

 00000581  FF 4D B8			dec xCounter
 00000584  E9 FFFFFF67			jmp xloop_sprite

 00000589			end_xloop:
					; // Advance source Y
 00000589  8B 45 BC			mov eax, dirY
 0000058C  01 45 C4			add curSrcY, eax
					
 0000058F  46				inc esi
 00000590  E9 FFFFFF29			jmp yloop_sprite

 00000595			drawSprite_done:
					ret
 00000595  5A		   *	    pop    edx
 00000596  59		   *	    pop    ecx
 00000597  5B		   *	    pop    ebx
 00000598  5F		   *	    pop    edi
 00000599  5E		   *	    pop    esi
 0000059A  C9		   *	    leave  
 0000059B  C2 0010	   *	    ret    00010h
 0000059E			drawSprite ENDP

				; // ----------------------------------
				; // drawText
				; // Private helper. Draws a string of text to the buffer from a font atlas.
				; // Position is relative to camera (unless ignoreCamera set).
				; // ----------------------------------
 0000059E			drawText PROC PRIVATE USES esi edi ebx ecx edx, pTrans:DWORD, pTextComp:DWORD, pCamera:DWORD, pBuffer:DWORD
					local tempTransform : TransformComponent
					local tempSprite : SpriteComponent

					; // Initialize tempTransform
 0000059E  55		   *	    push   ebp
 0000059F  8B EC	   *	    mov    ebp, esp
 000005A1  83 C4 B4	   *	    add    esp, 0FFFFFFB4h
 000005A4  56		   *	    push   esi
 000005A5  57		   *	    push   edi
 000005A6  53		   *	    push   ebx
 000005A7  51		   *	    push   ecx
 000005A8  52		   *	    push   edx
 000005A9  8B 75 08			mov esi, pTrans
 000005AC  8B 46 08			mov eax, (TransformComponent PTR [esi]).x
 000005AF  89 45 F4			mov tempTransform.x, eax
 000005B2  8B 46 0C			mov eax, (TransformComponent PTR [esi]).y
 000005B5  89 45 F8			mov tempTransform.y, eax
 000005B8  8B 46 10			mov eax, (TransformComponent PTR [esi]).ignoreCamera
 000005BB  89 45 FC			mov tempTransform.ignoreCamera, eax

					; // Initialize tempSprite
 000005BE  8B 75 0C			mov esi, pTextComp
 000005C1  8B 46 10			mov eax, (TextComponent PTR [esi]).pFontTexture
 000005C4  89 45 CC			mov tempSprite.pTexture, eax

 000005C7  8B 46 1C			mov eax, (TextComponent PTR [esi]).charW
 000005CA  89 45 D8			mov tempSprite.cellW, eax

 000005CD  8B 46 20			mov eax, (TextComponent PTR [esi]).charH
 000005D0  89 45 DC			mov tempSprite.cellH, eax

 000005D3  C7 45 E8			mov tempSprite.isCell, 1
	   00000001
 000005DA  C7 45 E0			mov tempSprite.flipX, 0
	   00000000
 000005E1  C7 45 E4			mov tempSprite.flipY, 0
	   00000000
 000005E8  C7 45 C4			mov tempSprite.originX, 0
	   00000000
 000005EF  C7 45 C8			mov tempSprite.originY, 0
	   00000000

					; // Retrive the pointer to the text string
 000005F6  8B 76 14			mov esi, (TextComponent PTR [esi]).pText
 000005F9			drawText_charloop:
					; // Fetch next character
 000005F9  0F B6 06			movzx eax, BYTE PTR [esi]
 000005FC  85 C0			test eax, eax
 000005FE  74 41			jz drawText_exit; // Found a null terminator
				
					; // Find Column (Index % 16)
 00000600  8B D8			mov ebx, eax
 00000602  83 E3 0F			and ebx, 15 
				
					; // Find Row (Index / 16)
 00000605  8B C8			mov ecx, eax
 00000607  C1 E9 04			shr ecx, 4  
				
					; // CellX
 0000060A  8B 7D 0C			mov edi, pTextComp
 0000060D  8B 57 1C			mov edx, (TextComponent PTR [edi]).charW
 00000610  0F AF DA			imul ebx, edx
 00000613  89 5D D0			mov tempSprite.cellX, ebx
				
					; // CellY
 00000616  8B 57 20			mov edx, (TextComponent PTR [edi]).charH
 00000619  0F AF CA			imul ecx, edx
 0000061C  89 4D D4			mov tempSprite.cellY, ecx
				
					; // Draw the character using drawSprite
 0000061F  8D 45 EC			lea eax, tempTransform
 00000622  8D 5D B4			lea ebx, tempSprite
					INVOKE drawSprite, eax, ebx, pCamera, pBuffer
 00000625  FF 75 14	   *	    push   dword  ptr ss:[ebp]+000000014h
 00000628  FF 75 10	   *	    push   dword  ptr ss:[ebp]+000000010h
 0000062B  53		   *	    push   ebx
 0000062C  50		   *	    push   eax
 0000062D  E8 FFFFFCF1	   *	    call   drawSprite
				
					; // Advance x position
 00000632  8B 7D 0C			mov edi, pTextComp
 00000635  8B 47 1C			mov eax, (TextComponent PTR [edi]).charW
 00000638  03 47 24			add eax, (TextComponent PTR [edi]).spacing
 0000063B  01 45 F4			add tempTransform.x, eax

 0000063E  46				inc esi
 0000063F  EB B8			jmp drawText_charloop
						
 00000641			drawText_exit:	
					ret
 00000641  5A		   *	    pop    edx
 00000642  59		   *	    pop    ecx
 00000643  5B		   *	    pop    ebx
 00000644  5F		   *	    pop    edi
 00000645  5E		   *	    pop    esi
 00000646  C9		   *	    leave  
 00000647  C2 0010	   *	    ret    00010h
 0000064A			drawText ENDP

				; // ----------------------------------
				; // renderCommands
				; // Takes the render commands list and camera position,
				; // sorts the command pointers by layer (lowest first) using insertion sort,
				; // clears the RGB buffer to black, then draws every renderable in
				; // sorted order so that lower-layer objects appear behind higher-layer ones.
				; //
				; // Parameters:
				; //	pRenderCommands DWORD - pointer to an array of DWORD pointers,
				; //	                        each pointing to a RenderCommand struct.
				; //	numCommands     DWORD - number of entries in the array.
				; //	pCamera         DWORD - pointer to the active Camera struct.
				; // ----------------------------------
 0000064A			renderCommands PROC PUBLIC USES esi ecx edi ebx, pRenderCommands:DWORD, numCommands:DWORD, pCamera:DWORD, hWnd:DWORD
					local pBuffer:DWORD     ; // pointer to the screen pixel buffer
					local key_ptr:DWORD     ; // the RenderCommand pointer being placed during sort
					local key_layer:DWORD   ; // the layer value of key_ptr
					local sort_i:DWORD      ; // outer loop index  (insertion sort)
					local sort_j:DWORD      ; // inner loop index  (insertion sort)

 0000064A  55		   *	    push   ebp
 0000064B  8B EC	   *	    mov    ebp, esp
 0000064D  83 C4 EC	   *	    add    esp, 0FFFFFFECh
 00000650  56		   *	    push   esi
 00000651  51		   *	    push   ecx
 00000652  57		   *	    push   edi
 00000653  53		   *	    push   ebx
					.IF rendererInitialized == 0 
 00000654  83 3D 00000000 R
	   00		   *	    cmp    rendererInitialized, 000h
 0000065B  75 0F	   *	    jne    @C0012
						INVOKE initializeRenderer
 0000065D  E8 FFFFFAC9	   *	    call   initializeRenderer
 00000662  C7 05 00000000 R			mov rendererInitialized, 0FFFFFFFFh
	   FFFFFFFF
					.ENDIF
 0000066C		   *@C0012:

					; // ----------------------------------------------------------------
					; // INSERTION SORT
					; // Sort pRenderCommands[0..numCommands-1] in ascending layer order.
					; // Algorithm: for each element i starting at 1, shift all elements
					; // to its left that have a larger layer value one slot to the right,
					; // then insert element i into the gap.
					; // ----------------------------------------------------------------

					; // Nothing to sort when there are fewer than 2 commands
 0000066C  8B 45 0C			mov eax, numCommands
 0000066F  83 F8 02			cmp eax, 2
 00000672  7C 73			jl sort_done

 00000674  C7 45 F0			mov sort_i, 1           ; // outer index starts at element 1
	   00000001

 0000067B			sort_outer_loop:
					; // Loop condition: while sort_i < numCommands
 0000067B  8B 45 F0			mov eax, sort_i
 0000067E  3B 45 0C			cmp eax, numCommands
 00000681  7D 64			jge sort_done

					; // key_ptr = pRenderCommands[sort_i]
					; //   esi = address of pRenderCommands[sort_i]
					; //   eax = the RenderCommand pointer stored there
 00000683  8B 75 08			mov esi, pRenderCommands
 00000686  8B 45 F0			mov eax, sort_i
 00000689  C1 E0 02			shl eax, 2              ; // byte offset = sort_i * sizeof(DWORD)
 0000068C  03 F0			add esi, eax            ; // esi = &pRenderCommands[sort_i]
 0000068E  8B 06			mov eax, [esi]          ; // eax = RenderCommand pointer at index sort_i
 00000690  89 45 F8			mov key_ptr, eax

					; // key_layer = key_ptr->pRenderable->layer
 00000693  8B 48 04			mov ecx, (RenderCommand PTR [eax]).pRenderable
 00000696  8B 41 0C			mov eax, (RenderableComponent PTR [ecx]).layer
 00000699  89 45 F4			mov key_layer, eax

					; // sort_j = sort_i - 1  (start scanning leftward from the element before key)
 0000069C  8B 45 F0			mov eax, sort_i
 0000069F  48				dec eax
 000006A0  89 45 EC			mov sort_j, eax

 000006A3			sort_inner_loop:
					; // Loop condition: while sort_j >= 0
					; // Note: sort_j is a DWORD local. When it wraps below 0 it becomes
					; //       0FFFFFFFFh, which is negative when interpreted as a signed
					; //       value, so the signed "jl" correctly detects the underflow.
 000006A3  8B 45 EC			mov eax, sort_j
 000006A6  83 F8 00			cmp eax, 0
 000006A9  7C 26			jl sort_insert          ; // j < 0: we've reached the front of the array

					; // Load pRenderCommands[sort_j] and read its layer
					; //   esi = address of pRenderCommands[sort_j]
					; //   ecx = the RenderCommand pointer stored there
					; //   edx = layer value of that command
 000006AB  8B 75 08			mov esi, pRenderCommands
 000006AE  8B 45 EC			mov eax, sort_j
 000006B1  C1 E0 02			shl eax, 2
 000006B4  03 F0			add esi, eax            ; // esi = &pRenderCommands[sort_j]
 000006B6  8B 0E			mov ecx, [esi]          ; // ecx = RenderCommand pointer at [sort_j]
 000006B8  8B 51 04			mov edx, (RenderCommand PTR [ecx]).pRenderable
 000006BB  8B 52 0C			mov edx, (RenderableComponent PTR [edx]).layer

					; // If [sort_j].layer <= key_layer: the key belongs here, stop shifting
 000006BE  3B 55 F4			cmp edx, key_layer
 000006C1  7E 0E			jle sort_insert

					; // [sort_j].layer > key_layer: shift [sort_j] one slot to the right
					; //   pRenderCommands[sort_j + 1] = pRenderCommands[sort_j]
					; //   esi is still &pRenderCommands[sort_j], so esi+4 is [sort_j+1]
 000006C3  8B 06			mov eax, [esi]          ; // value at [sort_j]
 000006C5  8B FE			mov edi, esi
 000006C7  83 C7 04			add edi, 4              ; // edi = &pRenderCommands[sort_j + 1]
 000006CA  89 07			mov [edi], eax          ; // write shifted value one slot right

 000006CC  FF 4D EC			dec sort_j
 000006CF  EB D2			jmp sort_inner_loop

 000006D1			sort_insert:
					; // Write key_ptr into pRenderCommands[sort_j + 1]
					; // When sort_j wrapped below 0 (i.e., 0FFFFFFFFh), inc brings it to 0,
					; // which correctly targets index 0 (the very front of the array).
 000006D1  8B 75 08			mov esi, pRenderCommands
 000006D4  8B 45 EC			mov eax, sort_j
 000006D7  40				inc eax                 ; // sort_j + 1
 000006D8  C1 E0 02			shl eax, 2              ; // byte offset
 000006DB  03 F0			add esi, eax            ; // esi = &pRenderCommands[sort_j + 1]
 000006DD  8B 45 F8			mov eax, key_ptr
 000006E0  89 06			mov [esi], eax          ; // insert key at its sorted position

 000006E2  FF 45 F0			inc sort_i
 000006E5  EB 94			jmp sort_outer_loop

 000006E7			sort_done:
					; // ----------------------------------------------------------------
					; // CLEAR BUFFER
					; // Fill the screen pixel buffer with solid black (r=0,g=0,b=0,a=255).
					; // ----------------------------------------------------------------
 000006E7  8B 3D 00000028 R		mov edi, pScreenBuffer
 000006ED  89 7D FC			mov pBuffer, edi
 000006F0  B9 001FA400			mov ecx, GAME_WIDTH * GAME_HEIGHT
 000006F5  B8 FF000000			mov eax, 0FF000000h
 000006FA  F3/ AB			rep stosd

					; // ----------------------------------------------------------------
					; // RENDER LOOP
					; // Walk the now-sorted pointer array and dispatch each command to
					; // the correct drawing helper (drawRect or drawSprite).
					; // Lower-layer objects were sorted to the front of the array and are
					; // therefore drawn first (background). Higher-layer objects are drawn
					; // last (foreground), painting over earlier layers as expected.
					; // ----------------------------------------------------------------
 000006FC  8B 75 08			mov esi, pRenderCommands
 000006FF  8B 5D 0C			mov ebx, numCommands

 00000702			cmd_loop:
 00000702  83 FB 00			cmp ebx, 0
 00000705  74 50			je render_done
 00000707  4B				dec ebx

 00000708  8B 06			mov eax, [esi]
 0000070A  8B 50 04			mov edx, (RenderCommand PTR [eax]).pRenderable
 0000070D  8B 12			mov edx, (Component PTR [edx]).componentType

					.IF edx == RECT_COMPONENT_ID
 0000070F  83 FA 01	   *	    cmp    edx, RECT_COMPONENT_ID
 00000712  75 12	   *	    jne    @C0014
						INVOKE drawRect, (RenderCommand PTR [eax]).pTransform, (RenderCommand PTR [eax]).pRenderable, pCamera, pBuffer
 00000714  FF 75 FC	   *	    push   dword  ptr ss:[ebp]+0FFFFFFFCh
 00000717  FF 75 10	   *	    push   dword  ptr ss:[ebp]+000000010h
 0000071A  FF 70 04	   *	    push   dword  ptr [eax]+000000004h
 0000071D  FF 30	   *	    push   dword  ptr [eax]
 0000071F  E8 FFFFFAE7	   *	    call   drawRect
					.ELSEIF edx == SPRITE_COMPONENT_ID
 00000724  EB 2C	   *	    jmp    @C0016
 00000726		   *@C0014:
 00000726  83 FA 02	   *	    cmp    edx, SPRITE_COMPONENT_ID
 00000729  75 12	   *	    jne    @C0017
						INVOKE drawSprite, (RenderCommand PTR [eax]).pTransform, (RenderCommand PTR [eax]).pRenderable, pCamera, pBuffer
 0000072B  FF 75 FC	   *	    push   dword  ptr ss:[ebp]+0FFFFFFFCh
 0000072E  FF 75 10	   *	    push   dword  ptr ss:[ebp]+000000010h
 00000731  FF 70 04	   *	    push   dword  ptr [eax]+000000004h
 00000734  FF 30	   *	    push   dword  ptr [eax]
 00000736  E8 FFFFFBE8	   *	    call   drawSprite
					.ELSEIF edx == TEXT_COMPONENT_ID
 0000073B  EB 15	   *	    jmp    @C0019
 0000073D		   *@C0017:
 0000073D  83 FA 06	   *	    cmp    edx, TEXT_COMPONENT_ID
 00000740  75 10	   *	    jne    @C001A
						INVOKE drawText, (RenderCommand PTR[eax]).pTransform, (RenderCommand PTR[eax]).pRenderable, pCamera, pBuffer
 00000742  FF 75 FC	   *	    push   dword  ptr ss:[ebp]+0FFFFFFFCh
 00000745  FF 75 10	   *	    push   dword  ptr ss:[ebp]+000000010h
 00000748  FF 70 04	   *	    push   dword  ptr [eax]+000000004h
 0000074B  FF 30	   *	    push   dword  ptr [eax]
 0000074D  E8 FFFFFE4C	   *	    call   drawText
					.ENDIF
 00000752		   *@C001A:
 00000752		   *@C0019:
 00000752		   *@C0016:

 00000752  83 C6 04			add esi, TYPE DWORD
 00000755  EB AB			jmp cmd_loop

 00000757			render_done:
					INVOKE displayBuffer, pBuffer, hWnd
 00000757  FF 75 14	   *	    push   dword  ptr ss:[ebp]+000000014h
 0000075A  FF 75 FC	   *	    push   dword  ptr ss:[ebp]+0FFFFFFFCh
 0000075D  E8 FFFFF8C7	   *	    call   displayBuffer
					ret
 00000762  5B		   *	    pop    ebx
 00000763  5F		   *	    pop    edi
 00000764  59		   *	    pop    ecx
 00000765  5E		   *	    pop    esi
 00000766  C9		   *	    leave  
 00000767  C2 0010	   *	    ret    00010h
 0000076A			renderCommands ENDP

				END
Microsoft (R) Macro Assembler Version 14.00.24210.0	    04/21/26 15:57:46
renderer.asm						     Symbols 2 - 1




Macros:

                N a m e                 Type

DEF_ENUM . . . . . . . . . . . .	Proc


Structures and Unions:

                N a m e                  Size
                                         Offset      Type

BITMAPINFOHEADER . . . . . . . .	 00000028
  biSize . . . . . . . . . . . .	 00000000	 DWord
  biWidth  . . . . . . . . . . .	 00000004	 DWord
  biHeight . . . . . . . . . . .	 00000008	 DWord
  biPlanes . . . . . . . . . . .	 0000000C	 Word
  biBitCount . . . . . . . . . .	 0000000E	 Word
  biCompression  . . . . . . . .	 00000010	 DWord
  biSizeImage  . . . . . . . . .	 00000014	 DWord
  biXPelsPerMeter  . . . . . . .	 00000018	 DWord
  biYPelsPerMeter  . . . . . . .	 0000001C	 DWord
  biClrUsed  . . . . . . . . . .	 00000020	 DWord
  biClrImportant . . . . . . . .	 00000024	 DWord
CONSOLE_CURSOR_INFO  . . . . . .	 00000008
  dwSize . . . . . . . . . . . .	 00000000	 DWord
  bVisible . . . . . . . . . . .	 00000004	 DWord
Camera . . . . . . . . . . . . .	 00000010
  x  . . . . . . . . . . . . . .	 00000000	 DWord
  y  . . . . . . . . . . . . . .	 00000004	 DWord
  h  . . . . . . . . . . . . . .	 00000008	 DWord
  w  . . . . . . . . . . . . . .	 0000000C	 DWord
Component_vtable . . . . . . . .	 00000004
  pFree  . . . . . . . . . . . .	 00000000	 DWord
Component  . . . . . . . . . . .	 00000008
  componentType  . . . . . . . .	 00000000	 DWord
  pVt  . . . . . . . . . . . . .	 00000004	 DWord
MSG  . . . . . . . . . . . . . .	 0000001C
  hwnd . . . . . . . . . . . . .	 00000000	 DWord
  message  . . . . . . . . . . .	 00000004	 DWord
  wParam . . . . . . . . . . . .	 00000008	 DWord
  lparam . . . . . . . . . . . .	 0000000C	 DWord
  time . . . . . . . . . . . . .	 00000010	 DWord
  pt . . . . . . . . . . . . . .	 00000014	 QWord
POINT  . . . . . . . . . . . . .	 00000008
  X  . . . . . . . . . . . . . .	 00000000	 DWord
  Y  . . . . . . . . . . . . . .	 00000004	 DWord
Pixel  . . . . . . . . . . . . .	 00000004
  r  . . . . . . . . . . . . . .	 00000000	 Byte
  g  . . . . . . . . . . . . . .	 00000001	 Byte
  b  . . . . . . . . . . . . . .	 00000002	 Byte
  a  . . . . . . . . . . . . . .	 00000003	 Byte
RectComponent  . . . . . . . . .	 0000001C
  baseRenderableComponent  . . .	 00000000	 XmmWord
  h  . . . . . . . . . . . . . .	 00000010	 DWord
  w  . . . . . . . . . . . . . .	 00000014	 DWord
  r  . . . . . . . . . . . . . .	 00000018	 Byte
  g  . . . . . . . . . . . . . .	 00000019	 Byte
  b  . . . . . . . . . . . . . .	 0000001A	 Byte
  a  . . . . . . . . . . . . . .	 0000001B	 Byte
RenderCommand  . . . . . . . . .	 00000008
  pTransform . . . . . . . . . .	 00000000	 DWord
  pRenderable  . . . . . . . . .	 00000004	 DWord
RenderableComponent  . . . . . .	 00000010
  baseComponent  . . . . . . . .	 00000000	 QWord
  visible  . . . . . . . . . . .	 00000008	 DWord
  layer  . . . . . . . . . . . .	 0000000C	 DWord
SpriteComponent  . . . . . . . .	 00000038
  baseRenderableComponent  . . .	 00000000	 XmmWord
  originX  . . . . . . . . . . .	 00000010	 DWord
  originY  . . . . . . . . . . .	 00000014	 DWord
  pTexture . . . . . . . . . . .	 00000018	 DWord
  cellX  . . . . . . . . . . . .	 0000001C	 DWord
  cellY  . . . . . . . . . . . .	 00000020	 DWord
  cellW  . . . . . . . . . . . .	 00000024	 DWord
  cellH  . . . . . . . . . . . .	 00000028	 DWord
  flipX  . . . . . . . . . . . .	 0000002C	 DWord
  flipY  . . . . . . . . . . . .	 00000030	 DWord
  isCell . . . . . . . . . . . .	 00000034	 DWord
TextComponent  . . . . . . . . .	 00000028
  baseRenderableComponent  . . .	 00000000	 XmmWord
  pFontTexture . . . . . . . . .	 00000010	 DWord
  pText  . . . . . . . . . . . .	 00000014	 DWord
  textMaxLen . . . . . . . . . .	 00000018	 DWord
  charW  . . . . . . . . . . . .	 0000001C	 DWord
  charH  . . . . . . . . . . . .	 00000020	 DWord
  spacing  . . . . . . . . . . .	 00000024	 DWord
Texture  . . . . . . . . . . . .	 0000000C
  w  . . . . . . . . . . . . . .	 00000000	 DWord
  h  . . . . . . . . . . . . . .	 00000004	 DWord
  pPixels  . . . . . . . . . . .	 00000008	 DWord
TransformComponent . . . . . . .	 00000014
  baseComponent  . . . . . . . .	 00000000	 QWord
  x  . . . . . . . . . . . . . .	 00000008	 DWord
  y  . . . . . . . . . . . . . .	 0000000C	 DWord
  ignoreCamera . . . . . . . . .	 00000010	 DWord
WNDCLASSEXA  . . . . . . . . . .	 00000030
  cbSize . . . . . . . . . . . .	 00000000	 DWord
  style  . . . . . . . . . . . .	 00000004	 DWord
  lpfnWndProc  . . . . . . . . .	 00000008	 DWord
  cbClsExtra . . . . . . . . . .	 0000000C	 DWord
  cbWndExtra . . . . . . . . . .	 00000010	 DWord
  hInstance  . . . . . . . . . .	 00000014	 DWord
  hIcon  . . . . . . . . . . . .	 00000018	 DWord
  hCursor  . . . . . . . . . . .	 0000001C	 DWord
  hbrBackground  . . . . . . . .	 00000020	 DWord
  lpszMenuName . . . . . . . . .	 00000024	 DWord
  lpszClassName  . . . . . . . .	 00000028	 DWord
  hIconSm  . . . . . . . . . . .	 0000002C	 DWord


Types:

                N a m e                  Size     Attr

ENUM_COMPONENT_ID  . . . . . . .	 00000004     DWord
HANDLE . . . . . . . . . . . . .	 00000004     DWord
HBRUSH . . . . . . . . . . . . .	 00000004     DWord
HCURSOR  . . . . . . . . . . . .	 00000004     DWord
HDC  . . . . . . . . . . . . . .	 00000004     DWord
HICON  . . . . . . . . . . . . .	 00000004     DWord
HINSTANCE  . . . . . . . . . . .	 00000004     DWord
HMENU  . . . . . . . . . . . . .	 00000004     DWord
HWND . . . . . . . . . . . . . .	 00000004     DWord
LPARAM . . . . . . . . . . . . .	 00000004     DWord
LPCSTR . . . . . . . . . . . . .	 00000004     Near32 PTR Byte
LPMSG  . . . . . . . . . . . . .	 00000004     Near32 PTR MSG
LPVOID . . . . . . . . . . . . .	 00000004     Near32 PTR DWord
UINT . . . . . . . . . . . . . .	 00000004     DWord
VOID . . . . . . . . . . . . . .	 00000004     DWord
WNDPROC  . . . . . . . . . . . .	 00000004     DWord
WPARAM . . . . . . . . . . . . .	 00000004     DWord


Segments and Groups:

                N a m e                 Size     Length   Align   Combine Class

FLAT . . . . . . . . . . . . . .	GROUP
STACK  . . . . . . . . . . . . .	32 Bit	 00001000 Para	  Stack	  'STACK'	 
_DATA  . . . . . . . . . . . . .	32 Bit	 00000054 Para	  Public  'DATA'	
_TEXT  . . . . . . . . . . . . .	32 Bit	 0000076A Para	  Public  'CODE'	


Procedures, parameters, and locals:

                N a m e                 Type     Value    Attr

CreateWindowExA  . . . . . . . .	P Near	 00000000 FLAT	Length= 00000000 External STDCALL
DefWindowProcA . . . . . . . . .	P Near	 00000000 FLAT	Length= 00000000 External STDCALL
DispatchMessageA . . . . . . . .	P Near	 00000000 FLAT	Length= 00000000 External STDCALL
GetConsoleCursorInfo . . . . . .	P Near	 00000000 FLAT	Length= 00000000 External STDCALL
GetConsoleMode . . . . . . . . .	P Near	 00000000 FLAT	Length= 00000000 External STDCALL
GetDC  . . . . . . . . . . . . .	P Near	 00000000 FLAT	Length= 00000000 External STDCALL
GetModuleHandleA . . . . . . . .	P Near	 00000000 FLAT	Length= 00000000 External STDCALL
GetProcessHeap . . . . . . . . .	P Near	 00000000 FLAT	Length= 00000000 External STDCALL
GetStdHandle . . . . . . . . . .	P Near	 00000000 FLAT	Length= 00000000 External STDCALL
GetStockObject . . . . . . . . .	P Near	 00000000 FLAT	Length= 00000000 External STDCALL
GetSystemMetrics . . . . . . . .	P Near	 00000000 FLAT	Length= 00000000 External STDCALL
HeapAlloc  . . . . . . . . . . .	P Near	 00000000 FLAT	Length= 00000000 External STDCALL
HeapFree . . . . . . . . . . . .	P Near	 00000000 FLAT	Length= 00000000 External STDCALL
HeapReAlloc  . . . . . . . . . .	P Near	 00000000 FLAT	Length= 00000000 External STDCALL
LoadCursorA  . . . . . . . . . .	P Near	 00000000 FLAT	Length= 00000000 External STDCALL
PeekMessageA . . . . . . . . . .	P Near	 00000000 FLAT	Length= 00000000 External STDCALL
PostQuitMessage  . . . . . . . .	P Near	 00000000 FLAT	Length= 00000000 External STDCALL
RegisterClassExA . . . . . . . .	P Near	 00000000 FLAT	Length= 00000000 External STDCALL
ReleaseDC  . . . . . . . . . . .	P Near	 00000000 FLAT	Length= 00000000 External STDCALL
SetConsoleCursorInfo . . . . . .	P Near	 00000000 FLAT	Length= 00000000 External STDCALL
SetConsoleCursorPosition . . . .	P Near	 00000000 FLAT	Length= 00000000 External STDCALL
SetConsoleMode . . . . . . . . .	P Near	 00000000 FLAT	Length= 00000000 External STDCALL
SetConsoleOutputCP . . . . . . .	P Near	 00000000 FLAT	Length= 00000000 External STDCALL
SetProcessDPIAware . . . . . . .	P Near	 00000000 FLAT	Length= 00000000 External STDCALL
StretchDIBits  . . . . . . . . .	P Near	 00000000 FLAT	Length= 00000000 External STDCALL
TranslateMessage . . . . . . . .	P Near	 00000000 FLAT	Length= 00000000 External STDCALL
VirtualAlloc . . . . . . . . . .	P Near	 00000000 FLAT	Length= 00000000 External STDCALL
VirtualFree  . . . . . . . . . .	P Near	 00000000 FLAT	Length= 00000000 External STDCALL
WriteConsoleA  . . . . . . . . .	P Near	 00000000 FLAT	Length= 00000000 External STDCALL
blendColor . . . . . . . . . . .	P Near	 00000154 _TEXT	Length= 000000B7 Private STDCALL
  fgColor  . . . . . . . . . . .	DWord	 bp + 00000008
  bgColor  . . . . . . . . . . .	DWord	 bp + 0000000C
  finalColor . . . . . . . . . .	DWord	 bp - 00000004
  fgAlpha  . . . . . . . . . . .	DWord	 bp - 00000008
  blendColor_exit  . . . . . . .	L Near	 00000202 _TEXT	
calculateAspectRatio . . . . . .	P Near	 00000091 _TEXT	Length= 0000009A Private STDCALL
  SCREEN_WIDTH . . . . . . . . .	DWord	 bp - 00000004
  SCREEN_HEIGHT  . . . . . . . .	DWord	 bp - 00000008
  letterboxing . . . . . . . . .	L Near	 000000C9 _TEXT	
  pillarboxing . . . . . . . . .	L Near	 000000E4 _TEXT	
  calculateXYOffset  . . . . . .	L Near	 00000105 _TEXT	
displayBuffer  . . . . . . . . .	P Near	 00000029 _TEXT	Length= 00000068 Public STDCALL
  pBuffer  . . . . . . . . . . .	DWord	 bp + 00000008
  hWnd . . . . . . . . . . . . .	DWord	 bp + 0000000C
  hdc  . . . . . . . . . . . . .	DWord	 bp - 00000004
drawRect . . . . . . . . . . . .	P Near	 0000020B _TEXT	Length= 00000118 Private STDCALL
  pTrans . . . . . . . . . . . .	DWord	 bp + 00000008
  pRect  . . . . . . . . . . . .	DWord	 bp + 0000000C
  pCamera  . . . . . . . . . . .	DWord	 bp + 00000010
  pBuffer  . . . . . . . . . . .	DWord	 bp + 00000014
  sx . . . . . . . . . . . . . .	DWord	 bp - 00000004
  sy . . . . . . . . . . . . . .	DWord	 bp - 00000008
  rw . . . . . . . . . . . . . .	DWord	 bp - 0000000C
  rh . . . . . . . . . . . . . .	DWord	 bp - 00000010
  color  . . . . . . . . . . . .	DWord	 bp - 00000014
  check_x_end  . . . . . . . . .	L Near	 00000275 _TEXT	
  set_x_bounds . . . . . . . . .	L Near	 00000282 _TEXT	
  check_y_end  . . . . . . . . .	L Near	 000002A5 _TEXT	
  set_y_bounds . . . . . . . . .	L Near	 000002B2 _TEXT	
  yloop_rect . . . . . . . . . .	L Near	 000002E9 _TEXT	
  xloop_rect . . . . . . . . . .	L Near	 00000303 _TEXT	
  drawRect_done  . . . . . . . .	L Near	 0000031A _TEXT	
drawSprite . . . . . . . . . . .	P Near	 00000323 _TEXT	Length= 0000027B Private STDCALL
  pTrans . . . . . . . . . . . .	DWord	 bp + 00000008
  pSprite  . . . . . . . . . . .	DWord	 bp + 0000000C
  pCamera  . . . . . . . . . . .	DWord	 bp + 00000010
  pBuffer  . . . . . . . . . . .	DWord	 bp + 00000014
  texW . . . . . . . . . . . . .	DWord	 bp - 00000004
  texH . . . . . . . . . . . . .	DWord	 bp - 00000008
  texPixels  . . . . . . . . . .	DWord	 bp - 0000000C
  sx . . . . . . . . . . . . . .	DWord	 bp - 00000010
  sy . . . . . . . . . . . . . .	DWord	 bp - 00000014
  rw . . . . . . . . . . . . . .	DWord	 bp - 00000018
  rh . . . . . . . . . . . . . .	DWord	 bp - 0000001C
  srcX . . . . . . . . . . . . .	DWord	 bp - 00000020
  srcY . . . . . . . . . . . . .	DWord	 bp - 00000024
  srcW . . . . . . . . . . . . .	DWord	 bp - 00000028
  srcH . . . . . . . . . . . . .	DWord	 bp - 0000002C
  startSrcX  . . . . . . . . . .	DWord	 bp - 00000030
  startSrcY  . . . . . . . . . .	DWord	 bp - 00000034
  curSrcX  . . . . . . . . . . .	DWord	 bp - 00000038
  curSrcY  . . . . . . . . . . .	DWord	 bp - 0000003C
  dirX . . . . . . . . . . . . .	DWord	 bp - 00000040
  dirY . . . . . . . . . . . . .	DWord	 bp - 00000044
  xCounter . . . . . . . . . . .	DWord	 bp - 00000048
  endY . . . . . . . . . . . . .	DWord	 bp - 0000004C
  srcRowBase . . . . . . . . . .	DWord	 bp - 00000050
  clipLeft . . . . . . . . . . .	DWord	 bp - 00000054
  clipTop  . . . . . . . . . . .	DWord	 bp - 00000058
  check_x_end  . . . . . . . . .	L Near	 00000405 _TEXT	
  set_x_bounds . . . . . . . . .	L Near	 00000412 _TEXT	
  check_y_end  . . . . . . . . .	L Near	 0000043E _TEXT	
  set_y_bounds . . . . . . . . .	L Near	 0000044B _TEXT	
  yloop_sprite . . . . . . . . .	L Near	 000004BE _TEXT	
  xloop_sprite . . . . . . . . .	L Near	 000004F0 _TEXT	
  write_pixel  . . . . . . . . .	L Near	 00000576 _TEXT	
  skip_pixel . . . . . . . . . .	L Near	 00000578 _TEXT	
  end_xloop  . . . . . . . . . .	L Near	 00000589 _TEXT	
  drawSprite_done  . . . . . . .	L Near	 00000595 _TEXT	
drawText . . . . . . . . . . . .	P Near	 0000059E _TEXT	Length= 000000AC Private STDCALL
  pTrans . . . . . . . . . . . .	DWord	 bp + 00000008
  pTextComp  . . . . . . . . . .	DWord	 bp + 0000000C
  pCamera  . . . . . . . . . . .	DWord	 bp + 00000010
  pBuffer  . . . . . . . . . . .	DWord	 bp + 00000014
  tempTransform  . . . . . . . .		 bp - 00000014
  tempSprite . . . . . . . . . .	 00000038    bp - 0000004C
  drawText_charloop  . . . . . .	L Near	 000005F9 _TEXT	
  drawText_exit  . . . . . . . .	L Near	 00000641 _TEXT	
free_camera  . . . . . . . . . .	P Near	 00000000 FLAT	Length= 00000000 External STDCALL
free_component_virtual . . . . .	P Near	 00000000 FLAT	Length= 00000000 External STDCALL
free_component . . . . . . . . .	P Near	 00000000 FLAT	Length= 00000000 External STDCALL
free_rect_component  . . . . . .	P Near	 00000000 FLAT	Length= 00000000 External STDCALL
free_render_command  . . . . . .	P Near	 00000000 FLAT	Length= 00000000 External STDCALL
free_texture . . . . . . . . . .	P Near	 00000000 FLAT	Length= 00000000 External STDCALL
free_transform_component . . . .	P Near	 00000000 FLAT	Length= 00000000 External STDCALL
init_camera  . . . . . . . . . .	P Near	 00000000 FLAT	Length= 00000000 External STDCALL
init_component . . . . . . . . .	P Near	 00000000 FLAT	Length= 00000000 External STDCALL
init_rect_component  . . . . . .	P Near	 00000000 FLAT	Length= 00000000 External STDCALL
init_render_command  . . . . . .	P Near	 00000000 FLAT	Length= 00000000 External STDCALL
init_renderable_component  . . .	P Near	 00000000 FLAT	Length= 00000000 External STDCALL
init_sprite_component  . . . . .	P Near	 00000000 FLAT	Length= 00000000 External STDCALL
init_text_component  . . . . . .	P Near	 00000000 FLAT	Length= 00000000 External STDCALL
init_texture . . . . . . . . . .	P Near	 00000000 FLAT	Length= 00000000 External STDCALL
init_transform_component . . . .	P Near	 00000000 FLAT	Length= 00000000 External STDCALL
initializeRenderer . . . . . . .	P Near	 0000012B _TEXT	Length= 00000029 Public STDCALL
initialize_heap  . . . . . . . .	P Near	 00000000 FLAT	Length= 00000000 External STDCALL
new_camera . . . . . . . . . . .	P Near	 00000000 FLAT	Length= 00000000 External STDCALL
new_component  . . . . . . . . .	P Near	 00000000 FLAT	Length= 00000000 External STDCALL
new_rect_component . . . . . . .	P Near	 00000000 FLAT	Length= 00000000 External STDCALL
new_render_command . . . . . . .	P Near	 00000000 FLAT	Length= 00000000 External STDCALL
new_sprite_component . . . . . .	P Near	 00000000 FLAT	Length= 00000000 External STDCALL
new_text_component . . . . . . .	P Near	 00000000 FLAT	Length= 00000000 External STDCALL
new_texture  . . . . . . . . . .	P Near	 00000000 FLAT	Length= 00000000 External STDCALL
new_transform_component  . . . .	P Near	 00000000 FLAT	Length= 00000000 External STDCALL
renderCommands . . . . . . . . .	P Near	 0000064A _TEXT	Length= 00000120 Public STDCALL
  pRenderCommands  . . . . . . .	DWord	 bp + 00000008
  numCommands  . . . . . . . . .	DWord	 bp + 0000000C
  pCamera  . . . . . . . . . . .	DWord	 bp + 00000010
  hWnd . . . . . . . . . . . . .	DWord	 bp + 00000014
  pBuffer  . . . . . . . . . . .	DWord	 bp - 00000004
  key_ptr  . . . . . . . . . . .	DWord	 bp - 00000008
  key_layer  . . . . . . . . . .	DWord	 bp - 0000000C
  sort_i . . . . . . . . . . . .	DWord	 bp - 00000010
  sort_j . . . . . . . . . . . .	DWord	 bp - 00000014
  sort_outer_loop  . . . . . . .	L Near	 0000067B _TEXT	
  sort_inner_loop  . . . . . . .	L Near	 000006A3 _TEXT	
  sort_insert  . . . . . . . . .	L Near	 000006D1 _TEXT	
  sort_done  . . . . . . . . . .	L Near	 000006E7 _TEXT	
  cmd_loop . . . . . . . . . . .	L Near	 00000702 _TEXT	
  render_done  . . . . . . . . .	L Near	 00000757 _TEXT	
set_text_component_text  . . . .	P Near	 00000000 FLAT	Length= 00000000 External STDCALL
writeByteInDecimal . . . . . . .	P Near	 00000000 _TEXT	Length= 00000029 Private STDCALL
  print_tens . . . . . . . . . .	L Near	 00000010 _TEXT	
  print_ones . . . . . . . . . .	L Near	 00000021 _TEXT	


Symbols:

                N a m e                 Type     Value    Attr

@CodeSize  . . . . . . . . . . .	Number	 00000000h   
@DataSize  . . . . . . . . . . .	Number	 00000000h   
@Interface . . . . . . . . . . .	Number	 00000003h   
@Model . . . . . . . . . . . . .	Number	 00000007h   
@code  . . . . . . . . . . . . .	Text   	 _TEXT
@data  . . . . . . . . . . . . .	Text   	 FLAT
@fardata?  . . . . . . . . . . .	Text   	 FLAT
@fardata . . . . . . . . . . . .	Text   	 FLAT
@stack . . . . . . . . . . . . .	Text   	 FLAT
BLACK_BRUSH  . . . . . . . . . .	Number	 00000004h   
CAMERA_INC . . . . . . . . . . .	Number	 00000001h   
COLOR_BACKGROUND . . . . . . . .	Number	 00000002h   
COLOR_WINDOW . . . . . . . . . .	Number	 00000005h   
COMPONENT_IDS_INC  . . . . . . .	Number	 00000001h   
COMPONENT_INC  . . . . . . . . .	Number	 00000001h   
CR . . . . . . . . . . . . . . .	Number	 0000000Dh   
CW_USEDEFAULT  . . . . . . . . .	Number	 -80000000h   
ConsoleMode  . . . . . . . . . .	DWord	 00000004 _DATA	
CreateWindowEx . . . . . . . . .	Text   	 CreateWindowExA
DEFAULT_COMPONENT_ID . . . . . .	Number	 00000000h   
DefWindowProc  . . . . . . . . .	Text   	 DefWindowProcA
DispatchMessage  . . . . . . . .	Text   	 DispatchMessageA
ENABLE_VIRTUAL_TERMINAL_PROCESSING .	Number	 00000004h   
ENGINE_TYPES_INC . . . . . . . .	Number	 00000001h   
ESCP . . . . . . . . . . . . . .	Number	 0000001Bh   
GAME_HEIGHT  . . . . . . . . . .	Number	 00000438h   
GAME_WIDTH . . . . . . . . . . .	Number	 00000780h   
GRAPH_WIN_INC  . . . . . . . . .	Number	 00000001h   
GetModuleHandle  . . . . . . . .	Text   	 GetModuleHandleA
HEAP_FUNCTIONS_INC . . . . . . .	Number	 00000001h   
HEAP_GENERATE_EXCEPTIONS . . . .	Number	 00000004h   
HEAP_NO_SERIALIZE  . . . . . . .	Number	 00000001h   
HEAP_ZERO_MEMORY . . . . . . . .	Number	 00000008h   
IDC_ARROW  . . . . . . . . . . .	Number	 00007F00h   
IDI_APPLICATION  . . . . . . . .	Number	 00007F00h   
LF . . . . . . . . . . . . . . .	Number	 0000000Ah   
LoadCursor . . . . . . . . . . .	Text   	 LoadCursorA
MEM_COMMIT . . . . . . . . . . .	Number	 00001000h   
MEM_RELEASE  . . . . . . . . . .	Number	 00008000h   
MEM_RESERVE  . . . . . . . . . .	Number	 00002000h   
NULL . . . . . . . . . . . . . .	Number	 00000000h   
PAGE_READWRITE . . . . . . . . .	Number	 00000004h   
PM_REMOVE  . . . . . . . . . . .	Number	 00000001h   
PeekMessage  . . . . . . . . . .	Text   	 PeekMessageA
RECT_COMMAND_INC . . . . . . . .	Number	 00000001h   
RECT_COMPONENT_ID  . . . . . . .	Number	 00000001h   
RENDERABLE_COMPONENT_ID  . . . .	Number	 00000004h   
RENDERABLE_COMPONENT_INC . . . .	Number	 00000001h   
RENDERER_COMMAND_INC . . . . . .	Number	 00000001h   
RENDERER_INC . . . . . . . . . .	Number	 00000001h   
RegisterClassEx  . . . . . . . .	Text   	 RegisterClassExA
SM_CXSCREEN  . . . . . . . . . .	Number	 00000000h   
SM_CYSCREEN  . . . . . . . . . .	Number	 00000001h   
SPRITE_COMPONENT_ID  . . . . . .	Number	 00000002h   
SPRITE_COMPONENT_INC . . . . . .	Number	 00000001h   
SRCCOPY  . . . . . . . . . . . .	Number	 00CC0020h   
STD_OUTPUT_HANDLE  . . . . . . .	Number	 -0000000Bh   
TEXTURE_INC  . . . . . . . . . .	Number	 00000001h   
TEXT_COMPONENT_ID  . . . . . . .	Number	 00000006h   
TEXT_COMPONENT_INC . . . . . . .	Number	 00000001h   
TIMER_COMPONENT_ID . . . . . . .	Number	 00000005h   
TRANSFORM_COMPONENT_ID . . . . .	Number	 00000003h   
TRANSFORM_COMPONENT_INC  . . . .	Number	 00000001h   
WM_DESTROY . . . . . . . . . . .	Number	 00000002h   
WM_ERASEBKGND  . . . . . . . . .	Number	 00000014h   
WM_QUIT  . . . . . . . . . . . .	Number	 00000012h   
WNDCLASSEX . . . . . . . . . . .	Text   	 WNDCLASSEXA
WS_OVERLAPPEDWINDOW  . . . . . .	Number	 00CF0000h   
WS_POPUP . . . . . . . . . . . .	Number	 -80000000h   
WS_VISIBLE . . . . . . . . . . .	Number	 10000000h   
bmiHeader  . . . . . . . . . . .	BITMAPINFOHEADER  0000002C _DATA	
bytesWritten . . . . . . . . . .	DWord	 0000000C _DATA	
consoleCursorInfo  . . . . . . .	CONSOLE_CURSOR_INFO  00000010 _DATA	
destH  . . . . . . . . . . . . .	DWord	 00000024 _DATA	
destW  . . . . . . . . . . . . .	DWord	 00000020 _DATA	
destX  . . . . . . . . . . . . .	DWord	 00000018 _DATA	
destY  . . . . . . . . . . . . .	DWord	 0000001C _DATA	
enumId . . . . . . . . . . . . .	Number	 00000007h   
hConsoleOutput . . . . . . . . .	DWord	 00000008 _DATA	
hHeap  . . . . . . . . . . . . .	DWord	 00000000 FLAT	External STDCALL
pScreenBuffer  . . . . . . . . .	DWord	 00000028 _DATA	
rendererInitialized  . . . . . .	DWord	 00000000 _DATA	

	   1 Warnings
	   0 Errors
